ccopy_reg
_reconstructor
p1
(cmrsim.brain
ActionValueFunction
p2
c__builtin__
object
p3
NtRp4
(dp5
S'default'
p6
I0
sS'_defaultActions'
p7
(dp8
S'0|P|+90,0|A|+90'
p9
I0
sS'0|P|-90'
p10
I0
sS'0|P|-90,0|A|+90'
p11
I0
sS'0|A|-90'
p12
I0
sS'0|A|+90'
p13
I0
sS'0|P|+90,0|A|-90'
p14
I0
sS'0|P|-90,0|A|-90'
p15
I0
sS'0|P|+90'
p16
I0
ssS'_data'
p17
(dp18
S"['1::1::90.0::90.0']"
p19
(dp20
g14
F0.5
ssS"['1::1::-90.0::-90.0']"
p21
(dp22
g9
F-0.25
sg10
F-0.46332337076513497
sg11
F11.591332537919257
sg12
F-4.3125
sg13
F5.2905912343357349
sg14
F4.2097961943653353
sg15
F-0.81676269247468269
sg16
F5.2843963119031478
ssS"['1::1::90.0::0.0']"
p23
(dp24
g12
F2.625
sg15
F1.25
ssS"['1::1::-90.0::0.0']"
p25
(dp26
g11
F12.39596739710219
sg13
F1.23828125
sg15
F0.9033203125
ssS"['1::1::0.0::90.0']"
p27
(dp28
g11
F1.3125
ssS"['1::1::0.0::0.0']"
p29
(dp30
g12
F1.58984375
sg11
F1.4482730391177172
sg15
F9.838117174968918
sg10
F0.5
sg9
F-1
ssS"['1::1::90.0::-90.0']"
p31
(dp32
g14
F4.3301370783997424
sg10
F-1.0517269608822828
ssS"['1::1::0.0::-90.0']"
p33
(dp34
g9
F-1
sg10
F-1.5208207909017801
sg12
F12.680360496511287
sg11
F0.544189453125
sg13
F0.49908447265625
sg14
F6.2075622320505293
sg15
F3.4414088726043701
sg16
F5.2590229869272482
sssS'actions'
p35
(lp36
g13
ag12
ag16
ag10
ag9
ag14
ag11
ag15
asb.