ccopy_reg
_reconstructor
p1
(cmrsim.brain
ActionValueFunction
p2
c__builtin__
object
p3
NtRp4
(dp5
S'default'
p6
I0
sS'_defaultActions'
p7
(dp8
S'4|P|+90'
p9
I0
sS'0|A|+90,4|P|-90'
p10
I0
sS'4|P|-90'
p11
I0
sS'0|A|+90,4|P|+90'
p12
I0
sS'0|A|-90'
p13
I0
sS'0|A|+90'
p14
I0
sS'0|A|-90,4|P|+90'
p15
I0
sS'0|A|-90,4|P|-90'
p16
I0
ssS'_data'
p17
(dp18
S"['1::1::-90.0::0.0', '1::1::0.0::0.0', '1::1::0.0::0.0', '1::1::0.0::0.0', '1::1::0.0::0.0']"
p19
(dp20
g9
F99.552487890198748
sg10
F98.847327358758974
sg11
F102.27587061975831
sg12
F92.955128604798062
sg13
F98.726560962780297
sg14
F104.71946959827804
sg15
F101.00629816025327
sg16
F102.02546376055263
ssS"['0::1::90.0::0.0', '1::1::0.0::0.0', '1::1::0.0::0.0', '1::1::0.0::0.0', '1::1::0.0::0.0']"
p21
(dp22
g15
F26.558049970908026
sg12
F17.39195092750057
ssS"['1::1::0.0::0.0', '1::1::0.0::0.0', '1::1::0.0::0.0', '1::1::0.0::0.0', '1::1::0.0::90.0']"
p23
(dp24
g9
F85.674079105839965
sg10
F73.75761542489829
sg11
F88.05368417156987
sg12
F80.134066012392708
sg13
F84.044082279359912
sg14
F83.996746646316069
sg15
F78.710840447615638
sg16
F101.28661677291181
ssS"['1::1::0.0::0.0', '1::1::0.0::0.0', '1::1::0.0::0.0', '1::1::0.0::0.0', '1::1::0.0::0.0']"
p25
(dp26
g9
F95.828922612154884
sg10
F95.849556098738645
sg11
F88.928140649913118
sg12
F89.84540709558496
sg13
F94.507543139120102
sg16
F105.12063250284285
sg15
F98.667775660835503
sg14
F99.018160905215737
ssS"['1::1::90.0::0.0', '1::1::0.0::0.0', '1::1::0.0::0.0', '1::1::0.0::0.0', '1::1::0.0::90.0']"
p27
(dp28
g9
F81.316546881496151
sg10
F66.809146192667328
sg11
F39.350884066718507
sg12
F63.521858694886248
sg13
F70.352305951693353
sg14
F60.71289792010181
sg15
F83.248422606384906
sg16
F100.31348054881079
ssS"['0::1::0.0::0.0', '1::1::0.0::0.0', '1::1::0.0::0.0', '1::1::0.0::0.0', '1::1::0.0::90.0']"
p29
(dp30
g9
F-0.5
sg11
F0.79762655365282087
sg12
F5.0319731506375867
sg15
F-0.5
sg14
F-0.038457242262186386
sg16
F56.581058366363074
ssS"['0::1::90.0::0.0', '0::1::0.0::0.0', '1::1::0.0::0.0', '1::1::0.0::0.0', '1::1::0.0::90.0']"
p31
(dp32
g16
F1.5952531073056417
ssS"['0::1::-90.0::0.0', '1::1::0.0::0.0', '1::1::0.0::0.0', '1::1::0.0::0.0', '1::1::0.0::0.0']"
p33
(dp34
g13
F-0.5
sg14
F-0.26926326751708984
sg10
F19.137435157170405
sg12
F-0.2884572422621865
ssS"['0::1::0.0::0.0', '1::1::0.0::0.0', '1::1::0.0::0.0', '1::1::0.0::0.0', '1::1::0.0::0.0']"
p35
(dp36
g15
F-0.5
sg16
F41.4540992869861
sg9
F0.25
sg12
F0.62281640834766416
ssS"['1::1::-90.0::0.0', '1::1::0.0::0.0', '1::1::0.0::0.0', '1::1::0.0::0.0', '1::1::0.0::-90.0']"
p37
(dp38
g9
F104.07393914807521
sg10
F97.412690599146117
sg11
F97.283484998703926
sg12
F102.66529123931403
sg13
F99.792775848354069
sg14
F98.701695577331776
sg15
F101.07819972289724
sg16
F100.63281925806308
ssS"['0::1::-90.0::0.0', '1::1::0.0::0.0', '1::1::0.0::0.0', '1::1::0.0::0.0', '1::1::0.0::-90.0']"
p39
(dp40
g15
F-0.5
sg16
F-0.5
sg10
F-0.5
sg12
F0.29762655365282087
ssS"['1::1::0.0::0.0', '1::1::0.0::0.0', '1::1::0.0::0.0', '1::1::0.0::0.0', '1::1::0.0::-90.0']"
p41
(dp42
g9
F93.584872571409591
sg10
F91.337617510292972
sg11
F96.726544792865951
sg12
F87.422570897062712
sg13
F103.28344361189122
sg16
F100.87219489555734
sg15
F92.430571319140668
sg14
F86.405713632864519
ssS"['1::1::90.0::0.0', '1::1::0.0::0.0', '1::1::0.0::0.0', '1::1::0.0::0.0', '1::1::0.0::0.0']"
p43
(dp44
g9
F57.374919677034931
sg10
F69.876938740166395
sg11
F78.409460271569174
sg12
F54.979334052171154
sg13
F85.537759353783173
sg16
F103.53209387409939
sg15
F57.746058262719252
sg14
F84.156167174870205
ssS"['0::1::0.0::0.0', '1::1::0.0::0.0', '1::1::0.0::0.0', '1::1::0.0::0.0', '1::1::0.0::-90.0']"
p45
(dp46
g9
F1.0952531073056417
ssS"['1::1::-90.0::0.0', '1::1::0.0::0.0', '1::1::0.0::0.0', '1::1::0.0::0.0', '1::1::0.0::90.0']"
p47
(dp48
g9
F88.261449671740593
sg10
F76.352001715447273
sg11
F102.76725163916701
sg12
F38.097086605882566
sg13
F83.319480768947585
sg16
F90.524179614098927
sg15
F81.581924548889688
sg14
F80.51967644607717
ssS"['0::1::-90.0::0.0', '1::1::0.0::0.0', '1::1::0.0::0.0', '1::1::0.0::0.0', '1::1::0.0::90.0']"
p49
(dp50
g11
F0.5
ssS"['0::1::90.0::0.0', '1::1::0.0::0.0', '1::1::0.0::0.0', '1::1::0.0::0.0', '1::1::0.0::90.0']"
p51
(dp52
g9
F0.24781640834766416
sg10
F5.7320995955317482
sg15
F-0.5
sg12
F5.9820995955317482
sg13
F0.6015625
sg14
F-0.5
sg16
F41.718838306528767
ssS"['1::1::90.0::0.0', '1::1::0.0::0.0', '1::1::0.0::0.0', '1::1::0.0::0.0', '1::1::0.0::-90.0']"
p53
(dp54
g9
F89.532264149676678
sg10
F83.163265132229071
sg11
F90.189220524575575
sg12
F83.392044080024192
sg13
F99.614498415157186
sg16
F76.299050350922769
sg15
F77.03177886649668
sg14
F87.162143238071934
ssS"['0::1::90.0::0.0', '1::1::0.0::0.0', '1::1::0.0::0.0', '1::1::0.0::0.0', '1::1::0.0::-90.0']"
p55
(dp56
g15
F5.9498667924566702
sg16
F-0.5
sssS'actions'
p57
(lp58
g14
ag13
ag9
ag11
ag12
ag10
ag15
ag16
asb.