ccopy_reg
_reconstructor
p1
(cmrsim.brain
ActionValueFunction1
p2
c__builtin__
object
p3
NtRp4
(dp5
S'default'
p6
I0
sS'_defaultActions'
p7
(dp8
S'4|P|+90'
p9
I0
sS'0|A|+90,4|P|-90'
p10
I0
sS'4|P|-90'
p11
I0
sS'0|A|+90,4|P|+90'
p12
I0
sS'0|A|-90'
p13
I0
sS'0|A|+90'
p14
I0
sS'0|A|-90,4|P|+90'
p15
I0
sS'0|A|-90,4|P|-90'
p16
I0
ssS'_data'
p17
(dp18
S"['90.0::0.0', '0.0::0.0', '0.0::0.0', '0.0::0.0', '0.0::-90.0']"
p19
(dp20
g9
F0.24956819457386029
sg10
F0.089991000000000002
sg11
F0.58483080408556709
sg12
F0.074862971326320873
sg13
F0.22795765120617728
sg16
F0.2494930952505563
sg15
F0.88240898505697041
ssS"['-90.0::0.0', '0.0::0.0', '0.0::0.0', '0.0::0.0', '0.0::90.0']"
p21
(dp22
g11
F0.13225513932994293
sg14
F0.65378456755437286
sg12
F0.16720637003300598
ssS"['90.0::0.0', '0.0::0.0', '0.0::0.0', '0.0::0.0', '0.0::0.0']"
p23
(dp24
g9
F0.47176543566171736
sg10
F0.47381008224975646
sg11
F0.1423973258175644
sg12
F0.48689346433539649
sg13
F0.94242646464945601
sg16
F0.33505342063916921
sg15
F0.46341848510159211
sg14
F0.46058159431994999
ssS"['0.0::0.0', '0.0::0.0', '0.0::0.0', '0.0::0.0', '0.0::90.0']"
p25
(dp26
g9
F0.25139922756478689
sg10
F0.8786899682631979
sg12
F0.42339752904200945
sg15
F0.53815679810041828
sg16
F0.22483770451508289
sg14
F0.38238206659296692
ssS"['90.0::0.0', '0.0::0.0', '0.0::0.0', '0.0::0.0', '0.0::90.0']"
p27
(dp28
g9
F0.22795765120617728
sg10
F0.089991000000000002
sg11
F0.26469622324753939
sg12
F0.26469622324753939
sg13
F0.24570132919620946
sg16
F0.94242646464945601
sg15
F0.40266287445371673
sg14
F0.26469622324753939
ssS"['0.0::0.0', '0.0::0.0', '0.0::0.0', '0.0::0.0', '0.0::-90.0']"
p29
(dp30
g9
F0.94242646464945601
sg10
F0.38753484578003761
sg11
F0.089991000000000002
sg12
F0.27528629715997499
sg13
F0.17492571201030541
sg14
F0.20539372554756435
sg15
F0.30793551888482651
sg16
F0.22795765120617728
ssS"['-90.0::0.0', '0.0::0.0', '0.0::0.0', '0.0::0.0', '0.0::0.0']"
p31
(dp32
g9
F0.017734261864497568
sg10
F0.73836343298622964
sg11
F0.089991000000000002
sg12
F0.10976631299463402
sg15
F0.19525657472195207
sg14
F0.51000899999999993
ssS"['-90.0::0.0', '0.0::0.0', '0.0::0.0', '0.0::0.0', '0.0::-90.0']"
p33
(dp34
g16
F0.2600831691629919
sg9
F0.29462190009600764
sg10
F0.11192931228030541
sg14
F0.28269966660089729
sg12
F0.75993483083700808
sssS'actions'
p35
(lp36
g14
ag13
ag9
ag11
ag12
ag10
ag15
ag16
asb.