ccopy_reg
_reconstructor
p1
(cmrsim.brain
ActionValueFunction2
p2
c__builtin__
object
p3
NtRp4
(dp5
S'default'
p6
I0
sS'_defaultActions'
p7
(dp8
S'undock|0||front'
p9
I0
sS'1|A|+90'
p10
I0
sS'undock|2||rear'
p11
I0
sS'4|A|-90'
p12
I0
sS'0|P|-90'
p13
I0
sS'3|A|+90'
p14
I0
sS'undock|3||rear'
p15
I0
sS'3|P|-90'
p16
I0
sS'0|P|+90'
p17
I0
sS'undock|0||bottom'
p18
I0
sS'1|P|+90'
p19
I0
sS'undock|0||rear'
p20
I0
sS'4|A|+90'
p21
I0
sS'4|P|-90'
p22
I0
sS'2|A|+90'
p23
I0
sS'undock|2||bottom'
p24
I0
sS'3|P|+90'
p25
I0
sS'0|A|+90'
p26
I0
sS'1|P|-90'
p27
I0
sS'2|P|-90'
p28
I0
sS'undock|1||bottom'
p29
I0
sS'undock|3||bottom'
p30
I0
sS'3|A|-90'
p31
I0
sS'undock|2||front'
p32
I0
sS'undock|1||rear'
p33
I0
sS'undock|4||bottom'
p34
I0
sS'undock|1||front'
p35
I0
sS'0|A|-90'
p36
I0
sS'undock|4||front'
p37
I0
sS'2|P|+90'
p38
I0
sS'4|P|+90'
p39
I0
sS'2|A|-90'
p40
I0
sS'1|A|-90'
p41
I0
sS'undock|4||rear'
p42
I0
sS'undock|3||front'
p43
I0
ssS'_data'
p44
(dp45
S"(['-90.0::0.0', '0.0::90.0', '0.0::90.0', '-90.0::0.0', '0.0::90.0'], [(1, 0, 'bottom'), (2, 1, 'bottom'), (3, 2, 'bottom'), (4, 3, 'bottom')])"
p46
(dp47
g28
F0.75
sg20
F-0.5
ssS"(['-90.0::90.0', '0.0::90.0', '0.0::90.0', '-90.0::0.0', '-90.0::0.0'], [(0, 4, 'bottom'), (1, 0, 'bottom'), (2, 1, 'bottom'), (3, 2, 'bottom'), (4, 3, 'bottom')])"
p48
(dp49
g15
F-0.5
sg29
F-0.5
sg13
F-0.5
sg35
F-0.5
sg36
F-0.5
sg42
F-0.5
sg17
F-0.5
ssS"(['-90.0::0.0', '90.0::90.0', '90.0::0.0', '0.0::0.0', '0.0::-90.0'], [(1, 0, 'bottom'), (2, 1, 'bottom'), (3, 2, 'bottom'), (4, 3, 'bottom')])"
p50
(dp51
g42
F-0.5
sg26
F0.5
sg40
F0.5
ssS"(['-90.0::-90.0', '90.0::90.0', '0.0::90.0', '0.0::0.0', '0.0::-90.0'], [(1, 0, 'bottom'), (2, 1, 'bottom'), (3, 2, 'bottom'), (4, 3, 'bottom')])"
p52
(dp53
g28
F0.5
ssS"(['0.0::0.0', '0.0::90.0', '0.0::90.0', '0.0::-90.0', '-90.0::0.0'], [(0, 4, 'bottom'), (1, 0, 'bottom'), (2, 1, 'bottom'), (3, 2, 'bottom'), (4, 3, 'bottom')])"
p54
(dp55
g42
F-0.5
sg39
F-0.5
sg33
F-0.5
ssS"(['-90.0::0.0', '0.0::90.0', '-90.0::90.0', '-90.0::0.0', '-90.0::0.0'], [(0, 4, 'bottom'), (1, 0, 'bottom'), (2, 1, 'bottom'), (3, 2, 'bottom'), (4, 3, 'bottom')])"
p56
(dp57
g27
F-0.5
sg32
F-0.5
ssS"(['-90.0::-90.0', '0.0::0.0', '90.0::90.0', '0.0::-90.0', '-90.0::0.0'], [(1, 0, 'bottom'), (2, 1, 'bottom'), (3, 2, 'bottom'), (4, 3, 'bottom')])"
p58
(dp59
g18
F-0.5
sg43
F-0.5
sg34
F-0.5
ssS"(['-90.0::0.0', '0.0::0.0', '0.0::90.0', '-90.0::0.0', '-90.0::0.0'], [(0, 4, 'bottom'), (1, 0, 'bottom'), (2, 1, 'bottom'), (3, 2, 'bottom'), (4, 3, 'bottom')])"
p60
(dp61
g9
F-0.5
sg15
F-0.5
sg20
F-0.5
sg37
F-0.5
sg10
F-0.5
sg30
F-0.5
sg13
F-0.5
ssS"(['0.0::90.0', '-90.0::0.0', '0.0::-90.0', '90.0::0.0', '-90.0::90.0'], [(1, 0, 'bottom'), (2, 1, 'bottom'), (3, 2, 'bottom'), (4, 3, 'bottom')])"
p62
(dp63
g15
F-0.5
sg41
F-0.5
sg31
F0.5
ssS"(['0.0::0.0', '90.0::0.0', '90.0::0.0', '-90.0::-90.0', '-90.0::-90.0'], [(1, 0, 'bottom'), (2, 1, 'bottom'), (3, 2, 'bottom'), (4, 3, 'bottom')])"
p64
(dp65
g30
F-0.5
sg23
F-0.5
ssS"(['-90.0::0.0', '0.0::0.0', '90.0::-90.0', '0.0::0.0', '0.0::0.0'], [(1, 0, 'bottom'), (2, 1, 'bottom'), (3, 2, 'bottom'), (4, 3, 'bottom')])"
p66
(dp67
g26
F0.5
ssS"(['0.0::0.0', '90.0::90.0', '90.0::0.0', '0.0::0.0', '0.0::-90.0'], [(1, 0, 'bottom'), (2, 1, 'bottom'), (3, 2, 'bottom'), (4, 3, 'bottom')])"
p68
(dp69
g42
F-0.5
sg36
F-0.25
sg11
F-0.75
ssS"(['-90.0::-90.0', '90.0::0.0', '90.0::90.0', '90.0::-90.0', '90.0::90.0'], [(0, 4, 'bottom'), (1, 0, 'bottom'), (2, 1, 'bottom'), (3, 2, 'bottom'), (4, 3, 'bottom')])"
p70
(dp71
g14
F-0.5
sg25
F-0.5
sg37
F-0.5
ssS"(['-90.0::0.0', '-90.0::90.0', '-90.0::90.0', '-90.0::90.0', '-90.0::90.0'], [(1, 0, 'bottom'), (2, 1, 'bottom'), (3, 2, 'bottom'), (4, 3, 'bottom')])"
p72
(dp73
g21
F0.5
ssS"(['-90.0::0.0', '0.0::0.0', '90.0::90.0', '-90.0::0.0', '-90.0::0.0'], [(1, 0, 'bottom'), (2, 1, 'bottom'), (3, 2, 'bottom'), (4, 3, 'bottom')])"
p74
(dp75
g13
F-0.5
ssS"(['-90.0::0.0', '-90.0::90.0', '-90.0::0.0', '-90.0::-90.0', '0.0::90.0'], [(1, 0, 'bottom'), (2, 1, 'bottom'), (3, 2, 'bottom'), (4, 3, 'bottom')])"
p76
(dp77
g14
F0.5
sg43
F-0.5
ssS"(['0.0::-90.0', '90.0::-90.0', '0.0::90.0', '0.0::0.0', '-90.0::-90.0'], [(0, 4, 'bottom'), (1, 0, 'bottom'), (2, 1, 'bottom'), (3, 2, 'bottom'), (4, 3, 'bottom')])"
p78
(dp79
g29
F-0.5
ssS"(['-90.0::0.0', '-90.0::90.0', '0.0::90.0', '0.0::0.0', '-90.0::0.0'], [(1, 0, 'bottom'), (2, 1, 'bottom'), (3, 2, 'bottom'), (4, 3, 'bottom')])"
p80
(dp81
g18
F-0.5
sg31
F-0.5
sg10
F2.390074547771547
sg28
F0.5
sg29
F-0.5
sg13
F-0.5
sg35
F-0.5
sg17
F-0.5
ssS"(['-90.0::-90.0', '0.0::90.0', '0.0::0.0', '-90.0::0.0', '90.0::90.0'], [(1, 0, 'bottom'), (2, 1, 'bottom'), (3, 2, 'bottom'), (4, 3, 'bottom')])"
p82
(dp83
g15
F-0.5
sg29
F-0.5
sg37
F-0.5
ssS"(['0.0::0.0', '0.0::90.0', '0.0::90.0', '-90.0::0.0', '-90.0::0.0'], [(0, 4, 'bottom'), (1, 0, 'bottom'), (2, 1, 'bottom'), (3, 2, 'bottom'), (4, 3, 'bottom')])"
p84
(dp85
g18
F0.5
ssS"(['-90.0::0.0', '-90.0::0.0', '0.0::0.0', '0.0::0.0', '-90.0::-90.0'], [(1, 0, 'bottom'), (2, 1, 'bottom'), (3, 2, 'bottom'), (4, 3, 'bottom')])"
p86
(dp87
g40
F-0.5
ssS"(['-90.0::0.0', '0.0::-90.0', '90.0::0.0', '0.0::0.0', '0.0::-90.0'], [(1, 0, 'bottom'), (2, 1, 'bottom'), (3, 2, 'bottom'), (4, 3, 'bottom')])"
p88
(dp89
g29
F-0.5
ssS"(['-90.0::90.0', '-90.0::0.0', '90.0::0.0', '-90.0::-90.0', '90.0::0.0'], [(1, 0, 'bottom'), (2, 1, 'bottom'), (3, 2, 'bottom'), (4, 3, 'bottom')])"
p90
(dp91
g24
F-0.5
ssS"(['-90.0::0.0', '0.0::90.0', '90.0::90.0', '90.0::0.0', '-90.0::90.0'], [(0, 4, 'bottom'), (1, 0, 'bottom'), (2, 1, 'bottom'), (3, 2, 'bottom'), (4, 3, 'bottom')])"
p92
(dp93
g40
F-0.5
ssS"(['0.0::0.0', '90.0::0.0', '90.0::90.0', '-90.0::0.0', '-90.0::0.0'], [(1, 0, 'bottom'), (2, 1, 'bottom'), (3, 2, 'bottom'), (4, 3, 'bottom')])"
p94
(dp95
g18
F-0.5
sg15
F-0.5
sg16
F-0.5
sg31
F-0.5
ssS"(['-90.0::0.0', '0.0::90.0', '90.0::90.0', '0.0::-90.0', '-90.0::90.0'], [(0, 4, 'bottom'), (1, 0, 'bottom'), (2, 1, 'bottom'), (3, 2, 'bottom'), (4, 3, 'bottom')])"
p96
(dp97
g27
F-0.5
sg20
F-0.5
sg37
F-0.5
ssS"(['-90.0::-90.0', '0.0::90.0', '-90.0::90.0', '90.0::90.0', '-90.0::0.0'], [(0, 4, 'bottom'), (1, 0, 'bottom'), (2, 1, 'bottom'), (3, 2, 'bottom'), (4, 3, 'bottom')])"
p98
(dp99
g14
F-0.75
sg16
F-0.5
ssS"(['-90.0::0.0', '0.0::90.0', '0.0::0.0', '-90.0::0.0', '-90.0::90.0'], [(1, 0, 'bottom'), (2, 1, 'bottom'), (3, 2, 'bottom'), (4, 3, 'bottom')])"
p100
(dp101
g37
F-0.5
sg21
F0.5
sg11
F-0.5
sg39
F-0.5
sg32
F-0.5
sg17
F-0.5
ssS"(['-90.0::0.0', '0.0::90.0', '0.0::90.0', '90.0::-90.0', '-90.0::0.0'], [(0, 4, 'bottom'), (1, 0, 'bottom'), (2, 1, 'bottom'), (3, 2, 'bottom'), (4, 3, 'bottom')])"
p102
(dp103
g19
F-0.75
sg37
F-0.5
sg21
F-0.5
sg10
F-0.5
sg28
F-0.5
sg12
F-0.5
sg33
F-0.75
sg38
F-0.5
sg43
F-0.5
ssS"(['-90.0::90.0', '0.0::90.0', '90.0::90.0', '90.0::-90.0', '-90.0::0.0'], [(0, 4, 'bottom'), (1, 0, 'bottom'), (2, 1, 'bottom'), (3, 2, 'bottom'), (4, 3, 'bottom')])"
p104
(dp105
g39
F-0.5
sg33
F-0.5
ssS"(['0.0::0.0', '0.0::0.0', '0.0::90.0', '0.0::0.0', '0.0::0.0'], [(1, 0, 'bottom'), (2, 1, 'bottom'), (3, 2, 'bottom'), (4, 3, 'bottom')])"
p106
(dp107
g26
F-0.5
sg25
F-0.5
ssS"(['-90.0::0.0', '0.0::0.0', '90.0::90.0', '0.0::0.0', '-90.0::0.0'], [(1, 0, 'bottom'), (2, 1, 'bottom'), (3, 2, 'bottom'), (4, 3, 'bottom')])"
p108
(dp109
g18
F-0.5
sg32
F-0.875
sg37
F-0.5
sg40
F0.9998779296875
sg38
F-0.5
ssS"(['0.0::90.0', '-90.0::90.0', '90.0::0.0', '90.0::90.0', '-90.0::-90.0'], [(0, 4, 'bottom'), (1, 0, 'bottom'), (2, 1, 'bottom'), (3, 2, 'bottom'), (4, 3, 'bottom')])"
p110
(dp111
g34
F-0.5
ssS"(['0.0::-90.0', '0.0::-90.0', '0.0::90.0', '-90.0::90.0', '0.0::-90.0'], [(1, 0, 'bottom'), (2, 1, 'bottom'), (3, 2, 'bottom'), (4, 3, 'bottom')])"
p112
(dp113
g37
F-0.5
sg17
F0.5
ssS"(['-90.0::0.0', '-90.0::90.0', '0.0::0.0', '-90.0::0.0', '0.0::90.0'], [(1, 0, 'bottom'), (2, 1, 'bottom'), (3, 2, 'bottom'), (4, 3, 'bottom')])"
p114
(dp115
g40
F-0.5
ssS"(['-90.0::0.0', '-90.0::-90.0', '0.0::-90.0', '-90.0::-90.0', '-90.0::-90.0'], [(1, 0, 'bottom'), (2, 1, 'bottom'), (3, 2, 'bottom'), (4, 3, 'bottom')])"
p116
(dp117
g38
F0.5
ssS"(['-90.0::-90.0', '0.0::90.0', '0.0::90.0', '90.0::0.0', '-90.0::0.0'], [(0, 4, 'bottom'), (1, 0, 'bottom'), (2, 1, 'bottom'), (3, 2, 'bottom'), (4, 3, 'bottom')])"
p118
(dp119
g12
F-0.5
sg25
F-0.5
ssS"(['-90.0::0.0', '90.0::0.0', '0.0::90.0', '-90.0::0.0', '-90.0::0.0'], [(0, 4, 'bottom'), (1, 0, 'bottom'), (2, 1, 'bottom'), (3, 2, 'bottom'), (4, 3, 'bottom')])"
p120
(dp121
g30
F-0.5
ssS"(['0.0::-90.0', '0.0::-90.0', '0.0::90.0', '-90.0::0.0', '0.0::-90.0'], [(1, 0, 'bottom'), (2, 1, 'bottom'), (3, 2, 'bottom'), (4, 3, 'bottom')])"
p122
(dp123
g18
F-0.5
sg21
F-0.5
sg37
F-0.5
sg22
F-0.5
sg32
F-0.5
sg33
F-0.75
sg13
F-0.5
sg38
F-0.5
sg35
F-0.5
sg23
F-0.5
sg42
F-0.5
ssS"(['-90.0::90.0', '90.0::90.0', '0.0::90.0', '0.0::0.0', '-90.0::0.0'], [(0, 4, 'bottom'), (1, 0, 'bottom'), (2, 1, 'bottom'), (3, 2, 'bottom'), (4, 3, 'bottom')])"
p124
(dp125
g23
F-0.5
ssS"(['-90.0::-90.0', '0.0::90.0', '0.0::90.0', '0.0::0.0', '-90.0::-90.0'], [(1, 0, 'bottom'), (2, 1, 'bottom'), (3, 2, 'bottom'), (4, 3, 'bottom')])"
p126
(dp127
g27
F0.5
sg14
F-0.5
ssS"(['0.0::0.0', '90.0::0.0', '0.0::90.0', '0.0::-90.0', '-90.0::-90.0'], [(0, 4, 'bottom'), (1, 0, 'bottom'), (2, 1, 'bottom'), (3, 2, 'bottom'), (4, 3, 'bottom')])"
p128
(dp129
g38
F-0.5
sg41
F-0.5
ssS"(['-90.0::0.0', '0.0::0.0', '0.0::90.0', '90.0::0.0', '90.0::0.0'], [(1, 0, 'bottom'), (2, 1, 'bottom'), (3, 2, 'bottom'), (4, 3, 'bottom')])"
p130
(dp131
g13
F-0.5
ssS"(['0.0::0.0', '0.0::90.0', '90.0::90.0', '-90.0::0.0', '-90.0::0.0'], [(0, 4, 'bottom'), (1, 0, 'bottom'), (2, 1, 'bottom'), (3, 2, 'bottom'), (4, 3, 'bottom')])"
p132
(dp133
g14
F-0.5
ssS"(['-90.0::0.0', '0.0::0.0', '-90.0::90.0', '0.0::0.0', '-90.0::0.0'], [(1, 0, 'bottom'), (2, 1, 'bottom'), (3, 2, 'bottom'), (4, 3, 'bottom')])"
p134
(dp135
g24
F-0.5
ssS"(['-90.0::0.0', '-90.0::0.0', '0.0::90.0', '-90.0::90.0', '-90.0::-90.0'], [(1, 0, 'bottom'), (2, 1, 'bottom'), (3, 2, 'bottom'), (4, 3, 'bottom')])"
p136
(dp137
g29
F-0.5
ssS"(['0.0::-90.0', '0.0::-90.0', '0.0::90.0', '-90.0::90.0', '0.0::0.0'], [(1, 0, 'bottom'), (2, 1, 'bottom'), (3, 2, 'bottom'), (4, 3, 'bottom')])"
p138
(dp139
g27
F-0.5
sg22
F-0.5
sg9
F-0.5
sg31
F-0.5
ssS"(['0.0::90.0', '-90.0::0.0', '0.0::90.0', '90.0::0.0', '0.0::0.0'], [(1, 0, 'bottom'), (2, 1, 'bottom'), (3, 2, 'bottom'), (4, 3, 'bottom')])"
p140
(dp141
g24
F-0.5
ssS"(['-90.0::0.0', '90.0::90.0', '90.0::-90.0', '0.0::0.0', '0.0::0.0'], [(1, 0, 'bottom'), (2, 1, 'bottom'), (3, 2, 'bottom'), (4, 3, 'bottom')])"
p142
(dp143
g22
F-0.5
ssS"(['-90.0::0.0', '-90.0::0.0', '0.0::90.0', '90.0::0.0', '0.0::0.0'], [(1, 0, 'bottom'), (2, 1, 'bottom'), (3, 2, 'bottom'), (4, 3, 'bottom')])"
p144
(dp145
g25
F-0.5
ssS"(['-90.0::0.0', '0.0::90.0', '0.0::90.0', '0.0::90.0', '-90.0::0.0'], [(0, 4, 'bottom'), (1, 0, 'bottom'), (2, 1, 'bottom'), (3, 2, 'bottom'), (4, 3, 'bottom')])"
p146
(dp147
g18
F4.7600931484648479
sg15
F-0.5
sg10
F-0.5
sg32
F0.58315750857639159
sg35
F1.5743121055325298
sg24
F-0.75
sg42
F1.560364608391327
sg17
F-0.25
ssS"(['-90.0::0.0', '0.0::90.0', '0.0::0.0', '-90.0::-90.0', '0.0::0.0'], [(1, 0, 'bottom'), (2, 1, 'bottom'), (3, 2, 'bottom'), (4, 3, 'bottom')])"
p148
(dp149
g13
F-0.5
ssS"(['-90.0::0.0', '90.0::90.0', '90.0::90.0', '0.0::0.0', '-90.0::0.0'], [(0, 4, 'bottom'), (1, 0, 'bottom'), (2, 1, 'bottom'), (3, 2, 'bottom'), (4, 3, 'bottom')])"
p150
(dp151
g11
F-0.5
sg39
F-0.5
sg23
F-0.5
ssS"(['-90.0::0.0', '0.0::0.0', '0.0::90.0', '0.0::-90.0', '-90.0::0.0'], [(0, 4, 'bottom'), (1, 0, 'bottom'), (2, 1, 'bottom'), (3, 2, 'bottom'), (4, 3, 'bottom')])"
p152
(dp153
g22
F-0.5
ssS"(['-90.0::-90.0', '-90.0::-90.0', '90.0::0.0', '-90.0::-90.0', '-90.0::-90.0'], [(1, 0, 'bottom'), (2, 1, 'bottom'), (3, 2, 'bottom'), (4, 3, 'bottom')])"
p154
(dp155
g28
F-0.5
ssS"(['0.0::0.0', '-90.0::0.0', '-90.0::90.0', '90.0::90.0', '0.0::0.0'], [(1, 0, 'bottom'), (2, 1, 'bottom'), (3, 2, 'bottom'), (4, 3, 'bottom')])"
p156
(dp157
g27
F-0.5
sg12
F-0.5
ssS"(['0.0::0.0', '0.0::0.0', '0.0::90.0', '0.0::90.0', '0.0::0.0'], [(1, 0, 'bottom'), (2, 1, 'bottom'), (3, 2, 'bottom'), (4, 3, 'bottom')])"
p158
(dp159
g31
F-0.5
sg32
F-0.5
ssS"(['0.0::0.0', '0.0::90.0', '0.0::90.0', '0.0::0.0', '-90.0::90.0'], [(0, 4, 'bottom'), (1, 0, 'bottom'), (2, 1, 'bottom'), (3, 2, 'bottom'), (4, 3, 'bottom')])"
p160
(dp161
g14
F-0.5
sg11
F-0.5
sg29
F-0.5
sg33
F-0.5
sg24
F-0.5
ssS"(['-90.0::0.0', '0.0::90.0', '0.0::90.0', '0.0::-90.0', '0.0::0.0'], [(1, 0, 'bottom'), (2, 1, 'bottom'), (3, 2, 'bottom'), (4, 3, 'bottom')])"
p162
(dp163
g28
F0.5
ssS"(['0.0::0.0', '0.0::0.0', '0.0::90.0', '-90.0::0.0', '90.0::0.0'], [(0, 4, 'bottom'), (1, 0, 'bottom'), (2, 1, 'bottom'), (3, 2, 'bottom'), (4, 3, 'bottom')])"
p164
(dp165
g42
F-0.5
sg29
F-0.5
ssS"(['0.0::90.0', '0.0::-90.0', '-90.0::0.0', '-90.0::0.0', '-90.0::0.0'], [(1, 0, 'bottom'), (2, 1, 'bottom'), (3, 2, 'bottom'), (4, 3, 'bottom')])"
p166
(dp167
g29
F-0.5
sg23
F0.5
ssS"(['0.0::0.0', '-90.0::0.0', '0.0::0.0', '-90.0::90.0', '-90.0::0.0'], [(1, 0, 'bottom'), (2, 1, 'bottom'), (3, 2, 'bottom'), (4, 3, 'bottom')])"
p168
(dp169
g22
F-0.5
ssS"(['-90.0::0.0', '-90.0::90.0', '-90.0::90.0', '-90.0::0.0', '-90.0::90.0'], [(1, 0, 'bottom'), (2, 1, 'bottom'), (3, 2, 'bottom'), (4, 3, 'bottom')])"
p170
(dp171
g38
F-0.5
sg31
F-0.5
sg39
F-0.75
sg25
F-0.5
sg40
F-0.5
ssS"(['-90.0::0.0', '0.0::0.0', '0.0::90.0', '0.0::90.0', '-90.0::-90.0'], [(1, 0, 'bottom'), (2, 1, 'bottom'), (3, 2, 'bottom'), (4, 3, 'bottom')])"
p172
(dp173
g29
F-0.5
ssS"(['-90.0::0.0', '0.0::90.0', '0.0::90.0', '90.0::-90.0', '0.0::0.0'], [(0, 4, 'bottom'), (1, 0, 'bottom'), (2, 1, 'bottom'), (3, 2, 'bottom'), (4, 3, 'bottom')])"
p174
(dp175
g12
F-0.5
ssS"(['0.0::90.0', '-90.0::0.0', '0.0::90.0', '0.0::-90.0', '-90.0::0.0'], [(1, 0, 'bottom'), (2, 1, 'bottom'), (3, 2, 'bottom'), (4, 3, 'bottom')])"
p176
(dp177
g39
F-0.5
ssS"(['0.0::90.0', '-90.0::90.0', '-90.0::90.0', '0.0::0.0', '90.0::90.0'], [(1, 0, 'bottom'), (2, 1, 'bottom'), (3, 2, 'bottom'), (4, 3, 'bottom')])"
p178
(dp179
g27
F0.5
sg40
F-0.5
ssS"(['0.0::0.0', '90.0::90.0', '90.0::90.0', '0.0::90.0', '0.0::90.0'], [(0, 4, 'bottom'), (1, 0, 'bottom'), (2, 1, 'bottom'), (3, 2, 'bottom'), (4, 3, 'bottom')])"
p180
(dp181
g29
F-0.5
ssS"(['-90.0::0.0', '0.0::90.0', '90.0::0.0', '-90.0::0.0', '-90.0::0.0'], [(0, 4, 'bottom'), (1, 0, 'bottom'), (2, 1, 'bottom'), (3, 2, 'bottom'), (4, 3, 'bottom')])"
p182
(dp183
g26
F-0.5
ssS"(['0.0::90.0', '-90.0::0.0', '0.0::90.0', '0.0::0.0', '-90.0::0.0'], [(1, 0, 'bottom'), (2, 1, 'bottom'), (3, 2, 'bottom'), (4, 3, 'bottom')])"
p184
(dp185
g11
F-0.5
sg16
F-0.5
ssS"(['-90.0::0.0', '0.0::90.0', '0.0::90.0', '90.0::0.0', '0.0::0.0'], [(1, 0, 'bottom'), (2, 1, 'bottom'), (3, 2, 'bottom'), (4, 3, 'bottom')])"
p186
(dp187
g36
F-0.5
sg18
F-0.5
sg11
F-0.5
sg15
F-0.5
sg27
F0.5
ssS"(['0.0::0.0', '90.0::90.0', '90.0::90.0', '0.0::-90.0', '-90.0::90.0'], [(0, 4, 'bottom'), (1, 0, 'bottom'), (2, 1, 'bottom'), (3, 2, 'bottom'), (4, 3, 'bottom')])"
p188
(dp189
g18
F0.5
sg23
F-0.5
ssS"(['-90.0::-90.0', '-90.0::-90.0', '0.0::90.0', '-90.0::0.0', '-90.0::-90.0'], [(1, 0, 'bottom'), (2, 1, 'bottom'), (3, 2, 'bottom'), (4, 3, 'bottom')])"
p190
(dp191
g30
F-0.5
ssS"(['-90.0::-90.0', '-90.0::90.0', '0.0::0.0', '0.0::0.0', '-90.0::0.0'], [(1, 0, 'bottom'), (2, 1, 'bottom'), (3, 2, 'bottom'), (4, 3, 'bottom')])"
p192
(dp193
g28
F-0.5
ssS"(['-90.0::0.0', '90.0::90.0', '0.0::0.0', '0.0::0.0', '-90.0::0.0'], [(1, 0, 'bottom'), (2, 1, 'bottom'), (3, 2, 'bottom'), (4, 3, 'bottom')])"
p194
(dp195
g28
F-0.5
sg32
F-0.125
sg41
F0.75
sg37
F-0.5
sg21
F0.5
ssS"(['0.0::0.0', '90.0::-90.0', '0.0::90.0', '0.0::0.0', '0.0::0.0'], [(1, 0, 'bottom'), (2, 1, 'bottom'), (3, 2, 'bottom'), (4, 3, 'bottom')])"
p196
(dp197
g40
F-0.5
ssS"(['90.0::0.0', '90.0::0.0', '0.0::90.0', '-90.0::0.0', '-90.0::90.0'], [(1, 0, 'bottom'), (2, 1, 'bottom'), (3, 2, 'bottom'), (4, 3, 'bottom')])"
p198
(dp199
g34
F-0.5
ssS"(['-90.0::0.0', '0.0::-90.0', '0.0::90.0', '90.0::0.0', '-90.0::-90.0'], [(0, 4, 'bottom'), (1, 0, 'bottom'), (2, 1, 'bottom'), (3, 2, 'bottom'), (4, 3, 'bottom')])"
p200
(dp201
g36
F-0.5
sg14
F-0.5
sg10
F-0.5
sg37
F-0.5
sg22
F-0.5
ssS"(['-90.0::90.0', '-90.0::90.0', '0.0::90.0', '0.0::0.0', '-90.0::0.0'], [(1, 0, 'bottom'), (2, 1, 'bottom'), (3, 2, 'bottom'), (4, 3, 'bottom')])"
p202
(dp203
g43
F-0.5
sg16
F-0.5
sg10
F0.5
ssS"(['0.0::0.0', '90.0::90.0', '0.0::90.0', '0.0::90.0', '-90.0::0.0'], [(1, 0, 'bottom'), (2, 1, 'bottom'), (3, 2, 'bottom'), (4, 3, 'bottom')])"
p204
(dp205
g28
F0.5
sg10
F-0.5
ssS"(['-90.0::0.0', '0.0::90.0', '0.0::0.0', '90.0::-90.0', '-90.0::0.0'], [(0, 4, 'bottom'), (1, 0, 'bottom'), (2, 1, 'bottom'), (3, 2, 'bottom'), (4, 3, 'bottom')])"
p206
(dp207
g40
F-0.5
ssS"(['-90.0::-90.0', '0.0::0.0', '0.0::90.0', '90.0::0.0', '90.0::0.0'], [(1, 0, 'bottom'), (2, 1, 'bottom'), (3, 2, 'bottom'), (4, 3, 'bottom')])"
p208
(dp209
g43
F-0.5
sg10
F-0.5
ssS"(['-90.0::-90.0', '0.0::0.0', '90.0::90.0', '90.0::-90.0', '0.0::0.0'], [(0, 4, 'bottom'), (1, 0, 'bottom'), (2, 1, 'bottom'), (3, 2, 'bottom'), (4, 3, 'bottom')])"
p210
(dp211
g42
F-0.5
sg21
F-0.5
ssS"(['-90.0::0.0', '-90.0::90.0', '0.0::0.0', '0.0::0.0', '-90.0::0.0'], [(0, 4, 'bottom'), (1, 0, 'bottom'), (2, 1, 'bottom'), (3, 2, 'bottom'), (4, 3, 'bottom')])"
p212
(dp213
g22
F-0.5
ssS"(['-90.0::0.0', '-90.0::0.0', '0.0::90.0', '90.0::0.0', '-90.0::0.0'], [(1, 0, 'bottom'), (2, 1, 'bottom'), (3, 2, 'bottom'), (4, 3, 'bottom')])"
p214
(dp215
g30
F-0.5
ssS"(['0.0::0.0', '90.0::0.0', '90.0::90.0', '-90.0::-90.0', '-90.0::0.0'], [(1, 0, 'bottom'), (2, 1, 'bottom'), (3, 2, 'bottom'), (4, 3, 'bottom')])"
p216
(dp217
g35
F-0.5
sg22
F-0.5
ssS"(['0.0::0.0', '0.0::90.0', '0.0::90.0', '0.0::-90.0', '-90.0::90.0'], [(0, 4, 'bottom'), (1, 0, 'bottom'), (2, 1, 'bottom'), (3, 2, 'bottom'), (4, 3, 'bottom')])"
p218
(dp219
g10
F-0.5
ssS"(['-90.0::0.0', '90.0::0.0', '0.0::90.0', '0.0::0.0', '-90.0::0.0'], [(1, 0, 'bottom'), (2, 1, 'bottom'), (3, 2, 'bottom'), (4, 3, 'bottom')])"
p220
(dp221
g28
F0.75
sg29
F-0.5
ssS"(['-90.0::-90.0', '0.0::0.0', '90.0::0.0', '0.0::-90.0', '-90.0::0.0'], [(1, 0, 'bottom'), (2, 1, 'bottom'), (3, 2, 'bottom'), (4, 3, 'bottom')])"
p222
(dp223
g38
F-0.5
ssS"(['-90.0::0.0', '0.0::90.0', '-90.0::90.0', '90.0::0.0', '0.0::0.0'], [(1, 0, 'bottom'), (2, 1, 'bottom'), (3, 2, 'bottom'), (4, 3, 'bottom')])"
p224
(dp225
g16
F-0.5
ssS"(['-90.0::0.0', '90.0::90.0', '90.0::-90.0', '0.0::0.0', '0.0::-90.0'], [(1, 0, 'bottom'), (2, 1, 'bottom'), (3, 2, 'bottom'), (4, 3, 'bottom')])"
p226
(dp227
g38
F0.5
sg20
F-0.5
ssS"(['-90.0::0.0', '0.0::0.0', '90.0::90.0', '-90.0::0.0', '0.0::0.0'], [(0, 4, 'bottom'), (1, 0, 'bottom'), (2, 1, 'bottom'), (3, 2, 'bottom'), (4, 3, 'bottom')])"
p228
(dp229
g42
F-0.75
sg36
F-0.5
sg40
F-0.5
ssS"(['-90.0::-90.0', '0.0::90.0', '0.0::90.0', '0.0::90.0', '0.0::0.0'], [(1, 0, 'bottom'), (2, 1, 'bottom'), (3, 2, 'bottom'), (4, 3, 'bottom')])"
p230
(dp231
g27
F0.5
ssS"(['-90.0::0.0', '0.0::90.0', '90.0::0.0', '0.0::0.0', '-90.0::90.0'], [(0, 4, 'bottom'), (1, 0, 'bottom'), (2, 1, 'bottom'), (3, 2, 'bottom'), (4, 3, 'bottom')])"
p232
(dp233
g32
F-0.5
sg12
F-0.5
sg17
F-0.5
ssS"(['0.0::0.0', '-90.0::90.0', '0.0::90.0', '0.0::0.0', '-90.0::0.0'], [(0, 4, 'bottom'), (1, 0, 'bottom'), (2, 1, 'bottom'), (3, 2, 'bottom'), (4, 3, 'bottom')])"
p234
(dp235
g36
F-0.5
ssS"(['-90.0::-90.0', '0.0::0.0', '90.0::0.0', '-90.0::0.0', '-90.0::0.0'], [(1, 0, 'bottom'), (2, 1, 'bottom'), (3, 2, 'bottom'), (4, 3, 'bottom')])"
p236
(dp237
g35
F-0.5
sg31
F-0.5
sg15
F-0.5
sg16
F-0.5
sg18
F-0.5
ssS"(['-90.0::-90.0', '0.0::90.0', '0.0::0.0', '-90.0::-90.0', '0.0::0.0'], [(1, 0, 'bottom'), (2, 1, 'bottom'), (3, 2, 'bottom'), (4, 3, 'bottom')])"
p238
(dp239
g30
F-0.5
sg20
F-0.5
ssS"(['-90.0::0.0', '0.0::0.0', '0.0::90.0', '90.0::0.0', '0.0::90.0'], [(1, 0, 'bottom'), (2, 1, 'bottom'), (3, 2, 'bottom'), (4, 3, 'bottom')])"
p240
(dp241
g14
F-0.5
sg20
F-0.5
sg22
F0.5
ssS"(['90.0::-90.0', '-90.0::90.0', '90.0::-90.0', '-90.0::90.0', '-90.0::-90.0'], [(1, 0, 'bottom'), (2, 1, 'bottom'), (3, 2, 'bottom'), (4, 3, 'bottom')])"
p242
(dp243
g27
F0.75
sg32
F-0.25
ssS"(['-90.0::0.0', '-90.0::90.0', '0.0::90.0', '0.0::-90.0', '0.0::90.0'], [(0, 4, 'bottom'), (1, 0, 'bottom'), (2, 1, 'bottom'), (3, 2, 'bottom'), (4, 3, 'bottom')])"
p244
(dp245
g29
F-0.5
ssS"(['-90.0::90.0', '-90.0::90.0', '90.0::0.0', '90.0::90.0', '-90.0::-90.0'], [(0, 4, 'bottom'), (1, 0, 'bottom'), (2, 1, 'bottom'), (3, 2, 'bottom'), (4, 3, 'bottom')])"
p246
(dp247
g26
F-0.5
ssS"(['-90.0::90.0', '0.0::0.0', '0.0::90.0', '-90.0::0.0', '0.0::90.0'], [(1, 0, 'bottom'), (2, 1, 'bottom'), (3, 2, 'bottom'), (4, 3, 'bottom')])"
p248
(dp249
g40
F-0.5
ssS"(['0.0::0.0', '0.0::90.0', '0.0::0.0', '0.0::0.0', '-90.0::0.0'], [(1, 0, 'bottom'), (2, 1, 'bottom'), (3, 2, 'bottom'), (4, 3, 'bottom')])"
p250
(dp251
g38
F-0.5
sg43
F-0.5
sg12
F-0.5
ssS"(['-90.0::0.0', '0.0::90.0', '0.0::90.0', '-90.0::0.0', '-90.0::-90.0'], [(1, 0, 'bottom'), (2, 1, 'bottom'), (3, 2, 'bottom'), (4, 3, 'bottom')])"
p252
(dp253
g30
F-0.5
ssS"(['-90.0::90.0', '0.0::90.0', '0.0::90.0', '90.0::0.0', '-90.0::0.0'], [(1, 0, 'bottom'), (2, 1, 'bottom'), (3, 2, 'bottom'), (4, 3, 'bottom')])"
p254
(dp255
g38
F-0.5
sg39
F-0.25
sg12
F-0.5
ssS"(['-90.0::-90.0', '-90.0::-90.0', '0.0::0.0', '-90.0::-90.0', '-90.0::-90.0'], [(1, 0, 'bottom'), (2, 1, 'bottom'), (3, 2, 'bottom'), (4, 3, 'bottom')])"
p256
(dp257
g23
F-0.5
ssS"(['-90.0::0.0', '0.0::90.0', '0.0::90.0', '0.0::0.0', '0.0::90.0'], [(1, 0, 'bottom'), (2, 1, 'bottom'), (3, 2, 'bottom'), (4, 3, 'bottom')])"
p258
(dp259
g19
F-0.75
sg11
F-0.5
sg31
F-0.25
sg12
F-0.5
sg34
F-0.5
sg38
F-0.5
sg24
F-0.5
sg43
F-0.5
sg30
F-0.5
ssS"(['-90.0::0.0', '0.0::0.0', '0.0::90.0', '0.0::90.0', '0.0::0.0'], [(1, 0, 'bottom'), (2, 1, 'bottom'), (3, 2, 'bottom'), (4, 3, 'bottom')])"
p260
(dp261
g29
F-0.5
ssS"(['0.0::0.0', '-90.0::90.0', '0.0::0.0', '-90.0::90.0', '-90.0::0.0'], [(1, 0, 'bottom'), (2, 1, 'bottom'), (3, 2, 'bottom'), (4, 3, 'bottom')])"
p262
(dp263
g27
F0.5
ssS"(['0.0::-90.0', '0.0::90.0', '-90.0::90.0', '0.0::0.0', '-90.0::0.0'], [(0, 4, 'bottom'), (1, 0, 'bottom'), (2, 1, 'bottom'), (3, 2, 'bottom'), (4, 3, 'bottom')])"
p264
(dp265
g26
F-0.5
ssS"(['-90.0::0.0', '0.0::0.0', '0.0::90.0', '90.0::0.0', '-90.0::90.0'], [(1, 0, 'bottom'), (2, 1, 'bottom'), (3, 2, 'bottom'), (4, 3, 'bottom')])"
p266
(dp267
g15
F-0.5
sg33
F-0.5
sg34
F-0.5
ssS"(['-90.0::-90.0', '0.0::0.0', '0.0::90.0', '0.0::0.0', '-90.0::-90.0'], [(1, 0, 'bottom'), (2, 1, 'bottom'), (3, 2, 'bottom'), (4, 3, 'bottom')])"
p268
(dp269
g38
F-0.5
sg15
F-0.5
sg28
F0.5
ssS"(['90.0::90.0', '0.0::0.0', '-90.0::90.0', '0.0::0.0', '90.0::90.0'], [(1, 0, 'bottom'), (2, 1, 'bottom'), (3, 2, 'bottom'), (4, 3, 'bottom')])"
p270
(dp271
g34
F-0.5
ssS"(['-90.0::-90.0', '90.0::90.0', '0.0::90.0', '0.0::0.0', '0.0::0.0'], [(0, 4, 'bottom'), (1, 0, 'bottom'), (2, 1, 'bottom'), (3, 2, 'bottom'), (4, 3, 'bottom')])"
p272
(dp273
g9
F-0.5
sg20
F-0.5
sg24
F-0.5
ssS"(['-90.0::0.0', '90.0::90.0', '90.0::90.0', '0.0::90.0', '0.0::90.0'], [(0, 4, 'bottom'), (1, 0, 'bottom'), (2, 1, 'bottom'), (3, 2, 'bottom'), (4, 3, 'bottom')])"
p274
(dp275
g26
F-0.5
sg39
F-0.5
sg23
F-0.5
ssS"(['0.0::-90.0', '0.0::90.0', '0.0::0.0', '0.0::0.0', '-90.0::0.0'], [(1, 0, 'bottom'), (2, 1, 'bottom'), (3, 2, 'bottom'), (4, 3, 'bottom')])"
p276
(dp277
g16
F-0.5
ssS"(['-90.0::-90.0', '90.0::0.0', '0.0::90.0', '90.0::90.0', '90.0::0.0'], [(1, 0, 'bottom'), (2, 1, 'bottom'), (3, 2, 'bottom'), (4, 3, 'bottom')])"
p278
(dp279
g41
F0.5
ssS"(['-90.0::90.0', '0.0::-90.0', '-90.0::0.0', '-90.0::0.0', '-90.0::0.0'], [(1, 0, 'bottom'), (2, 1, 'bottom'), (3, 2, 'bottom'), (4, 3, 'bottom')])"
p280
(dp281
g26
F0.5
ssS"(['0.0::0.0', '0.0::0.0', '0.0::90.0', '-90.0::0.0', '-90.0::-90.0'], [(1, 0, 'bottom'), (2, 1, 'bottom'), (3, 2, 'bottom'), (4, 3, 'bottom')])"
p282
(dp283
g27
F-0.5
ssS"(['-90.0::0.0', '-90.0::90.0', '-90.0::0.0', '0.0::-90.0', '0.0::90.0'], [(1, 0, 'bottom'), (2, 1, 'bottom'), (3, 2, 'bottom'), (4, 3, 'bottom')])"
p284
(dp285
g38
F-0.5
sg9
F-0.5
sg32
F-0.5
sg33
F-0.5
sg37
F-0.5
ssS"(['-90.0::90.0', '0.0::0.0', '0.0::90.0', '0.0::0.0', '0.0::0.0'], [(1, 0, 'bottom'), (2, 1, 'bottom'), (3, 2, 'bottom'), (4, 3, 'bottom')])"
p286
(dp287
g22
F-0.5
sg23
F-0.5
sg33
F-0.5
ssS"(['-90.0::0.0', '0.0::0.0', '0.0::90.0', '0.0::0.0', '0.0::0.0'], [(0, 4, 'bottom'), (1, 0, 'bottom'), (2, 1, 'bottom'), (3, 2, 'bottom'), (4, 3, 'bottom')])"
p288
(dp289
g31
F-0.5
sg21
F-0.5
ssS"(['90.0::-90.0', '-90.0::90.0', '90.0::-90.0', '0.0::0.0', '-90.0::-90.0'], [(1, 0, 'bottom'), (2, 1, 'bottom'), (3, 2, 'bottom'), (4, 3, 'bottom')])"
p290
(dp291
g25
F-0.5
sg20
F-0.5
ssS"(['-90.0::0.0', '-90.0::90.0', '90.0::90.0', '-90.0::0.0', '-90.0::-90.0'], [(0, 4, 'bottom'), (1, 0, 'bottom'), (2, 1, 'bottom'), (3, 2, 'bottom'), (4, 3, 'bottom')])"
p292
(dp293
g25
F-0.5
ssS"(['90.0::90.0', '0.0::90.0', '0.0::90.0', '-90.0::0.0', '-90.0::0.0'], [(1, 0, 'bottom'), (2, 1, 'bottom'), (3, 2, 'bottom'), (4, 3, 'bottom')])"
p294
(dp295
g29
F-0.5
sg15
F-0.5
sg32
F-0.5
ssS"(['90.0::-90.0', '-90.0::0.0', '90.0::0.0', '-90.0::90.0', '-90.0::0.0'], [(1, 0, 'bottom'), (2, 1, 'bottom'), (3, 2, 'bottom'), (4, 3, 'bottom')])"
p296
(dp297
g35
F-0.5
sg30
F-0.5
ssS"(['-90.0::0.0', '90.0::90.0', '0.0::90.0', '0.0::0.0', '0.0::0.0'], [(1, 0, 'bottom'), (2, 1, 'bottom'), (3, 2, 'bottom'), (4, 3, 'bottom')])"
p298
(dp299
g39
F-0.5
sg20
F-0.5
sg40
F-0.5
sg43
F-0.5
ssS"(['-90.0::0.0', '90.0::90.0', '0.0::-90.0', '0.0::0.0', '-90.0::0.0'], [(1, 0, 'bottom'), (2, 1, 'bottom'), (3, 2, 'bottom'), (4, 3, 'bottom')])"
p300
(dp301
g35
F-0.75
sg21
F0.5
sg37
F-0.5
ssS"(['0.0::0.0', '90.0::90.0', '0.0::90.0', '0.0::-90.0', '-90.0::90.0'], [(0, 4, 'bottom'), (1, 0, 'bottom'), (2, 1, 'bottom'), (3, 2, 'bottom'), (4, 3, 'bottom')])"
p302
(dp303
g42
F-0.5
sg23
F-0.5
ssS"(['-90.0::0.0', '0.0::-90.0', '90.0::0.0', '0.0::0.0', '0.0::0.0'], [(1, 0, 'bottom'), (2, 1, 'bottom'), (3, 2, 'bottom'), (4, 3, 'bottom')])"
p304
(dp305
g22
F-0.5
ssS"(['0.0::-90.0', '0.0::90.0', '0.0::90.0', '0.0::-90.0', '-90.0::90.0'], [(0, 4, 'bottom'), (1, 0, 'bottom'), (2, 1, 'bottom'), (3, 2, 'bottom'), (4, 3, 'bottom')])"
p306
(dp307
g38
F-0.5
sg30
F-0.5
ssS"(['-90.0::90.0', '0.0::90.0', '90.0::90.0', '90.0::0.0', '-90.0::0.0'], [(0, 4, 'bottom'), (1, 0, 'bottom'), (2, 1, 'bottom'), (3, 2, 'bottom'), (4, 3, 'bottom')])"
p308
(dp309
g16
F-0.5
ssS"(['-90.0::0.0', '0.0::-90.0', '0.0::0.0', '0.0::0.0', '0.0::0.0'], [(1, 0, 'bottom'), (2, 1, 'bottom'), (3, 2, 'bottom'), (4, 3, 'bottom')])"
p310
(dp311
g38
F-0.5
ssS"(['-90.0::0.0', '0.0::0.0', '0.0::0.0', '0.0::0.0', '-90.0::-90.0'], [(1, 0, 'bottom'), (2, 1, 'bottom'), (3, 2, 'bottom'), (4, 3, 'bottom')])"
p312
(dp313
g18
F-0.5
sg20
F-0.5
sg30
F-0.5
sg35
F-0.75
sg41
F-0.5
sg43
F-0.5
ssS"(['0.0::0.0', '-90.0::-90.0', '-90.0::90.0', '90.0::90.0', '0.0::0.0'], [(1, 0, 'bottom'), (2, 1, 'bottom'), (3, 2, 'bottom'), (4, 3, 'bottom')])"
p314
(dp315
g26
F-0.5
sg33
F-0.5
ssS"(['0.0::0.0', '0.0::-90.0', '0.0::90.0', '-90.0::90.0', '0.0::-90.0'], [(1, 0, 'bottom'), (2, 1, 'bottom'), (3, 2, 'bottom'), (4, 3, 'bottom')])"
p316
(dp317
g11
F-0.5
sg34
F-0.5
ssS"(['-90.0::0.0', '90.0::90.0', '0.0::0.0', '0.0::0.0', '0.0::-90.0'], [(1, 0, 'bottom'), (2, 1, 'bottom'), (3, 2, 'bottom'), (4, 3, 'bottom')])"
p318
(dp319
g19
F-0.5
sg20
F-0.5
sg16
F-0.5
ssS"(['0.0::0.0', '-90.0::0.0', '0.0::0.0', '-90.0::90.0', '-90.0::-90.0'], [(1, 0, 'bottom'), (2, 1, 'bottom'), (3, 2, 'bottom'), (4, 3, 'bottom')])"
p320
(dp321
g36
F-0.5
ssS"(['0.0::0.0', '0.0::90.0', '90.0::90.0', '0.0::0.0', '-90.0::0.0'], [(0, 4, 'bottom'), (1, 0, 'bottom'), (2, 1, 'bottom'), (3, 2, 'bottom'), (4, 3, 'bottom')])"
p322
(dp323
g24
F-0.5
ssS"(['0.0::0.0', '-90.0::90.0', '0.0::0.0', '0.0::90.0', '-90.0::0.0'], [(1, 0, 'bottom'), (2, 1, 'bottom'), (3, 2, 'bottom'), (4, 3, 'bottom')])"
p324
(dp325
g31
F-0.5
ssS"(['-90.0::-90.0', '-90.0::90.0', '0.0::-90.0', '0.0::0.0', '-90.0::0.0'], [(1, 0, 'bottom'), (2, 1, 'bottom'), (3, 2, 'bottom'), (4, 3, 'bottom')])"
p326
(dp327
g9
F-0.5
sg32
F-0.5
sg24
F-0.5
ssS"(['-90.0::0.0', '0.0::90.0', '90.0::0.0', '0.0::0.0', '-90.0::0.0'], [(0, 4, 'bottom'), (1, 0, 'bottom'), (2, 1, 'bottom'), (3, 2, 'bottom'), (4, 3, 'bottom')])"
p328
(dp329
g18
F0.5
sg39
F-0.5
sg23
F-0.5
sg37
F-0.5
ssS"(['-90.0::90.0', '0.0::0.0', '0.0::90.0', '0.0::0.0', '0.0::-90.0'], [(1, 0, 'bottom'), (2, 1, 'bottom'), (3, 2, 'bottom'), (4, 3, 'bottom')])"
p330
(dp331
g40
F-0.5
ssS"(['-90.0::90.0', '-90.0::90.0', '-90.0::90.0', '0.0::90.0', '-90.0::0.0'], [(0, 4, 'bottom'), (1, 0, 'bottom'), (2, 1, 'bottom'), (3, 2, 'bottom'), (4, 3, 'bottom')])"
p332
(dp333
g30
F-0.5
ssS"(['90.0::0.0', '-90.0::-90.0', '-90.0::90.0', '90.0::90.0', '0.0::0.0'], [(1, 0, 'bottom'), (2, 1, 'bottom'), (3, 2, 'bottom'), (4, 3, 'bottom')])"
p334
(dp335
g34
F-0.5
ssS"(['90.0::90.0', '90.0::90.0', '0.0::90.0', '90.0::0.0', '-90.0::-90.0'], [(1, 0, 'bottom'), (2, 1, 'bottom'), (3, 2, 'bottom'), (4, 3, 'bottom')])"
p336
(dp337
g30
F-0.5
ssS"(['-90.0::0.0', '0.0::90.0', '0.0::0.0', '0.0::0.0', '-90.0::0.0'], [(0, 4, 'bottom'), (1, 0, 'bottom'), (2, 1, 'bottom'), (3, 2, 'bottom'), (4, 3, 'bottom')])"
p338
(dp339
g27
F-0.5
sg18
F0.75
sg9
F-0.5
sg28
F-0.5
sg29
F-0.5
sg39
F-0.5
sg32
F-0.5
sg42
F-0.5
sg12
F-0.5
sg25
F-0.75
sg36
F-0.5
sg43
F-0.5
sg17
F-0.5
ssS"(['-90.0::0.0', '0.0::90.0', '0.0::0.0', '0.0::90.0', '-90.0::0.0'], [(1, 0, 'bottom'), (2, 1, 'bottom'), (3, 2, 'bottom'), (4, 3, 'bottom')])"
p340
(dp341
g35
F-0.5
sg26
F0.5
sg43
F-0.5
sg13
F-0.5
sg37
F-0.5
ssS"(['0.0::-90.0', '0.0::0.0', '-90.0::90.0', '0.0::0.0', '90.0::90.0'], [(1, 0, 'bottom'), (2, 1, 'bottom'), (3, 2, 'bottom'), (4, 3, 'bottom')])"
p342
(dp343
g30
F-0.5
sg31
F-0.5
ssS"(['-90.0::0.0', '0.0::90.0', '-90.0::90.0', '0.0::0.0', '0.0::0.0'], [(1, 0, 'bottom'), (2, 1, 'bottom'), (3, 2, 'bottom'), (4, 3, 'bottom')])"
p344
(dp345
g14
F-0.5
sg29
F-0.5
sg37
F-0.5
ssS"(['-90.0::90.0', '0.0::90.0', '0.0::0.0', '0.0::0.0', '-90.0::0.0'], [(0, 4, 'bottom'), (1, 0, 'bottom'), (2, 1, 'bottom'), (3, 2, 'bottom'), (4, 3, 'bottom')])"
p346
(dp347
g38
F0.24555843675886013
sg24
F-0.5
ssS"(['-90.0::0.0', '0.0::0.0', '0.0::90.0', '0.0::0.0', '-90.0::-90.0'], [(0, 4, 'bottom'), (1, 0, 'bottom'), (2, 1, 'bottom'), (3, 2, 'bottom'), (4, 3, 'bottom')])"
p348
(dp349
g14
F-0.5
ssS"(['0.0::0.0', '0.0::90.0', '0.0::0.0', '0.0::0.0', '-90.0::0.0'], [(0, 4, 'bottom'), (1, 0, 'bottom'), (2, 1, 'bottom'), (3, 2, 'bottom'), (4, 3, 'bottom')])"
p350
(dp351
g31
F-0.5
ssS"(['-90.0::90.0', '-90.0::0.0', '0.0::0.0', '-90.0::-90.0', '-90.0::0.0'], [(1, 0, 'bottom'), (2, 1, 'bottom'), (3, 2, 'bottom'), (4, 3, 'bottom')])"
p352
(dp353
g42
F-0.5
sg11
F-0.5
sg21
F0.5
ssS"(['-90.0::0.0', '-90.0::90.0', '90.0::90.0', '0.0::0.0', '-90.0::0.0'], [(0, 4, 'bottom'), (1, 0, 'bottom'), (2, 1, 'bottom'), (3, 2, 'bottom'), (4, 3, 'bottom')])"
p354
(dp355
g24
F-0.5
ssS"(['-90.0::90.0', '0.0::90.0', '-90.0::0.0', '0.0::90.0', '-90.0::0.0'], [(0, 4, 'bottom'), (1, 0, 'bottom'), (2, 1, 'bottom'), (3, 2, 'bottom'), (4, 3, 'bottom')])"
p356
(dp357
g23
F-0.5
sg37
F-0.5
ssS"(['-90.0::0.0', '90.0::90.0', '0.0::90.0', '90.0::0.0', '-90.0::0.0'], [(0, 4, 'bottom'), (1, 0, 'bottom'), (2, 1, 'bottom'), (3, 2, 'bottom'), (4, 3, 'bottom')])"
p358
(dp359
g30
F-0.5
sg16
F-0.5
ssS"(['-90.0::0.0', '0.0::0.0', '0.0::0.0', '0.0::0.0', '-90.0::90.0'], [(1, 0, 'bottom'), (2, 1, 'bottom'), (3, 2, 'bottom'), (4, 3, 'bottom')])"
p360
(dp361
g38
F-0.5
ssS"(['0.0::0.0', '90.0::90.0', '0.0::90.0', '0.0::0.0', '-90.0::0.0'], [(0, 4, 'bottom'), (1, 0, 'bottom'), (2, 1, 'bottom'), (3, 2, 'bottom'), (4, 3, 'bottom')])"
p362
(dp363
g39
F-0.5
ssS"(['-90.0::-90.0', '90.0::0.0', '90.0::90.0', '90.0::-90.0', '90.0::0.0'], [(0, 4, 'bottom'), (1, 0, 'bottom'), (2, 1, 'bottom'), (3, 2, 'bottom'), (4, 3, 'bottom')])"
p364
(dp365
g42
F-0.5
sg14
F-0.5
sg39
F-0.5
ssS"(['-90.0::0.0', '0.0::90.0', '0.0::90.0', '90.0::0.0', '-90.0::0.0'], [(1, 0, 'bottom'), (2, 1, 'bottom'), (3, 2, 'bottom'), (4, 3, 'bottom')])"
p366
(dp367
g18
F1.0653420177767066
sg31
F3.7740568283751732
sg20
F0.81534201777670656
sg21
F0.5
sg11
F0.2317962646484375
sg39
F-0.75
sg32
F1.0653420177767066
sg33
F1.0653420177767066
sg24
F-0.5
sg26
F0.5
sg43
F1.2774027970600967
sg17
F-0.5
ssS"(['0.0::-90.0', '0.0::0.0', '0.0::90.0', '0.0::0.0', '0.0::0.0'], [(1, 0, 'bottom'), (2, 1, 'bottom'), (3, 2, 'bottom'), (4, 3, 'bottom')])"
p368
(dp369
g39
F-0.5
ssS"(['-90.0::0.0', '0.0::0.0', '-90.0::90.0', '0.0::0.0', '0.0::90.0'], [(1, 0, 'bottom'), (2, 1, 'bottom'), (3, 2, 'bottom'), (4, 3, 'bottom')])"
p370
(dp371
g27
F-0.5
sg35
F-0.5
ssS"(['-90.0::90.0', '-90.0::0.0', '-90.0::90.0', '0.0::-90.0', '-90.0::0.0'], [(1, 0, 'bottom'), (2, 1, 'bottom'), (3, 2, 'bottom'), (4, 3, 'bottom')])"
p372
(dp373
g24
F-0.5
ssS"(['-90.0::90.0', '0.0::90.0', '0.0::90.0', '0.0::0.0', '-90.0::0.0'], [(1, 0, 'bottom'), (2, 1, 'bottom'), (3, 2, 'bottom'), (4, 3, 'bottom')])"
p374
(dp375
g19
F-0.5
sg15
F-0.5
sg32
F-0.5
sg13
F3.7957834378901967
ssS"(['-90.0::-90.0', '0.0::0.0', '90.0::90.0', '-90.0::0.0', '-90.0::0.0'], [(1, 0, 'bottom'), (2, 1, 'bottom'), (3, 2, 'bottom'), (4, 3, 'bottom')])"
p376
(dp377
g23
F-0.5
sg28
F0.5
sg15
F-0.5
sg29
F-0.5
ssS"(['0.0::-90.0', '0.0::90.0', '-90.0::90.0', '0.0::-90.0', '-90.0::0.0'], [(0, 4, 'bottom'), (1, 0, 'bottom'), (2, 1, 'bottom'), (3, 2, 'bottom'), (4, 3, 'bottom')])"
p378
(dp379
g18
F0.5
ssS"(['-90.0::90.0', '0.0::90.0', '0.0::90.0', '90.0::0.0', '0.0::90.0'], [(1, 0, 'bottom'), (2, 1, 'bottom'), (3, 2, 'bottom'), (4, 3, 'bottom')])"
p380
(dp381
g42
F-0.5
sg24
F-0.5
ssS"(['-90.0::90.0', '90.0::-90.0', '0.0::90.0', '90.0::90.0', '-90.0::0.0'], [(1, 0, 'bottom'), (2, 1, 'bottom'), (3, 2, 'bottom'), (4, 3, 'bottom')])"
p382
(dp383
g18
F-0.5
sg30
F-0.5
sg32
F-0.5
ssS"(['0.0::0.0', '90.0::90.0', '0.0::90.0', '0.0::0.0', '0.0::0.0'], [(0, 4, 'bottom'), (1, 0, 'bottom'), (2, 1, 'bottom'), (3, 2, 'bottom'), (4, 3, 'bottom')])"
p384
(dp385
g13
F-0.5
ssS"(['-90.0::0.0', '-90.0::-90.0', '0.0::0.0', '-90.0::-90.0', '-90.0::-90.0'], [(1, 0, 'bottom'), (2, 1, 'bottom'), (3, 2, 'bottom'), (4, 3, 'bottom')])"
p386
(dp387
g36
F-0.5
sg18
F-0.5
sg9
F-0.5
sg13
F-0.5
sg37
F-0.5
ssS"(['90.0::90.0', '0.0::0.0', '-90.0::0.0', '0.0::0.0', '0.0::0.0'], [(1, 0, 'bottom'), (2, 1, 'bottom'), (3, 2, 'bottom'), (4, 3, 'bottom')])"
p388
(dp389
g42
F-0.5
sg18
F-0.5
sg9
F-0.5
sg39
F-0.5
ssS"(['0.0::0.0', '0.0::0.0', '0.0::90.0', '0.0::0.0', '90.0::-90.0'], [(1, 0, 'bottom'), (2, 1, 'bottom'), (3, 2, 'bottom'), (4, 3, 'bottom')])"
p390
(dp391
g26
F-0.5
ssS"(['-90.0::0.0', '0.0::90.0', '0.0::90.0', '0.0::0.0', '0.0::-90.0'], [(1, 0, 'bottom'), (2, 1, 'bottom'), (3, 2, 'bottom'), (4, 3, 'bottom')])"
p392
(dp393
g18
F-0.5
sg10
F-0.5
sg11
F-0.5
sg32
F-0.5
sg13
F-0.5
sg33
F-0.5
sg22
F-0.5
sg35
F-0.5
sg36
F-0.5
sg43
F-0.5
sg30
F-0.5
ssS"(['-90.0::0.0', '0.0::90.0', '0.0::90.0', '0.0::-90.0', '-90.0::0.0'], [(1, 0, 'bottom'), (2, 1, 'bottom'), (3, 2, 'bottom'), (4, 3, 'bottom')])"
p394
(dp395
g18
F-0.5
sg29
F-0.5
ssS"(['-90.0::-90.0', '0.0::90.0', '90.0::90.0', '0.0::0.0', '-90.0::-90.0'], [(1, 0, 'bottom'), (2, 1, 'bottom'), (3, 2, 'bottom'), (4, 3, 'bottom')])"
p396
(dp397
g30
F-0.5
ssS"(['0.0::-90.0', '-90.0::90.0', '90.0::-90.0', '0.0::0.0', '-90.0::-90.0'], [(1, 0, 'bottom'), (2, 1, 'bottom'), (3, 2, 'bottom'), (4, 3, 'bottom')])"
p398
(dp399
g27
F0.5
ssS"(['0.0::0.0', '90.0::0.0', '90.0::90.0', '-90.0::-90.0', '-90.0::-90.0'], [(1, 0, 'bottom'), (2, 1, 'bottom'), (3, 2, 'bottom'), (4, 3, 'bottom')])"
p400
(dp401
g18
F-0.5
sg9
F-0.5
sg28
F0.5
sg10
F-0.5
ssS"(['-90.0::0.0', '-90.0::90.0', '0.0::90.0', '-90.0::90.0', '-90.0::-90.0'], [(1, 0, 'bottom'), (2, 1, 'bottom'), (3, 2, 'bottom'), (4, 3, 'bottom')])"
p402
(dp403
g27
F0.5
sg25
F-0.5
ssS"(['0.0::0.0', '0.0::-90.0', '0.0::90.0', '-90.0::0.0', '-90.0::-90.0'], [(1, 0, 'bottom'), (2, 1, 'bottom'), (3, 2, 'bottom'), (4, 3, 'bottom')])"
p404
(dp405
g13
F-0.5
ssS"(['-90.0::0.0', '0.0::90.0', '-90.0::90.0', '90.0::-90.0', '0.0::0.0'], [(1, 0, 'bottom'), (2, 1, 'bottom'), (3, 2, 'bottom'), (4, 3, 'bottom')])"
p406
(dp407
g26
F0.5
ssS"(['-90.0::0.0', '-90.0::90.0', '0.0::90.0', '0.0::0.0', '-90.0::0.0'], [(0, 4, 'bottom'), (1, 0, 'bottom'), (2, 1, 'bottom'), (3, 2, 'bottom'), (4, 3, 'bottom')])"
p408
(dp409
g9
F-0.5
sg10
F1.5153553127945871
sg12
F-0.5
sg13
F-0.5
sg14
F-0.5
sg19
F-0.5
sg20
F-0.5
sg22
F-0.5
sg23
F-0.5
sg24
F-0.5
sg25
F-0.75
sg26
F-0.5
sg15
F-0.75
sg29
F-0.5
sg30
F-0.5
sg28
F-0.5
sg32
F-0.5
sg33
F-0.5
sg35
F-0.75
sg36
F-0.5
sg37
F-0.5
sg39
F-0.5
sg40
F-0.5
sg42
F-0.5
ssS"(['-90.0::-90.0', '0.0::90.0', '0.0::0.0', '-90.0::0.0', '0.0::0.0'], [(0, 4, 'bottom'), (1, 0, 'bottom'), (2, 1, 'bottom'), (3, 2, 'bottom'), (4, 3, 'bottom')])"
p410
(dp411
g18
F0.5
ssS"(['-90.0::0.0', '0.0::90.0', '0.0::90.0', '90.0::0.0', '-90.0::0.0'], [(0, 4, 'bottom'), (1, 0, 'bottom'), (2, 1, 'bottom'), (3, 2, 'bottom'), (4, 3, 'bottom')])"
p412
(dp413
g27
F-0.75
sg18
F2.2629442018223926
sg9
F0.11589813232421875
sg15
F-0.5
sg21
F-0.5
sg33
F-0.5
sg16
F-0.75
sg17
F-0.5
sg40
F-0.75
sg36
F-0.5
sg43
F0.17384719848632812
sg41
F-0.5
ssS"(['-90.0::-90.0', '0.0::0.0', '0.0::0.0', '0.0::-90.0', '-90.0::0.0'], [(1, 0, 'bottom'), (2, 1, 'bottom'), (3, 2, 'bottom'), (4, 3, 'bottom')])"
p414
(dp415
g36
F-0.5
sg26
F0.5
ssS"(['-90.0::-90.0', '0.0::90.0', '90.0::90.0', '0.0::0.0', '0.0::-90.0'], [(1, 0, 'bottom'), (2, 1, 'bottom'), (3, 2, 'bottom'), (4, 3, 'bottom')])"
p416
(dp417
g35
F-0.5
sg12
F-0.5
ssS"(['-90.0::90.0', '0.0::0.0', '-90.0::90.0', '0.0::0.0', '0.0::-90.0'], [(1, 0, 'bottom'), (2, 1, 'bottom'), (3, 2, 'bottom'), (4, 3, 'bottom')])"
p418
(dp419
g31
F-0.5
ssS"(['-90.0::-90.0', '0.0::0.0', '90.0::90.0', '0.0::0.0', '-90.0::0.0'], [(1, 0, 'bottom'), (2, 1, 'bottom'), (3, 2, 'bottom'), (4, 3, 'bottom')])"
p420
(dp421
g11
F-0.5
sg34
F-0.5
ssS"(['-90.0::0.0', '0.0::90.0', '0.0::0.0', '0.0::-90.0', '-90.0::90.0'], [(0, 4, 'bottom'), (1, 0, 'bottom'), (2, 1, 'bottom'), (3, 2, 'bottom'), (4, 3, 'bottom')])"
p422
(dp423
g28
F-0.5
ssS"(['-90.0::-90.0', '0.0::90.0', '90.0::90.0', '0.0::90.0', '0.0::90.0'], [(0, 4, 'bottom'), (1, 0, 'bottom'), (2, 1, 'bottom'), (3, 2, 'bottom'), (4, 3, 'bottom')])"
p424
(dp425
g32
F-0.5
sg34
F-0.5
ssS"(['-90.0::90.0', '0.0::90.0', '-90.0::90.0', '0.0::90.0', '-90.0::0.0'], [(0, 4, 'bottom'), (1, 0, 'bottom'), (2, 1, 'bottom'), (3, 2, 'bottom'), (4, 3, 'bottom')])"
p426
(dp427
g9
F-0.5
sg28
F-0.5
sg41
F-0.5
sg40
F-0.5
ssS"(['-90.0::0.0', '0.0::0.0', '0.0::90.0', '0.0::0.0', '-90.0::-90.0'], [(1, 0, 'bottom'), (2, 1, 'bottom'), (3, 2, 'bottom'), (4, 3, 'bottom')])"
p428
(dp429
g22
F-0.5
sg25
F-0.5
sg34
F-0.5
ssS"(['-90.0::90.0', '-90.0::90.0', '0.0::90.0', '0.0::90.0', '-90.0::0.0'], [(0, 4, 'bottom'), (1, 0, 'bottom'), (2, 1, 'bottom'), (3, 2, 'bottom'), (4, 3, 'bottom')])"
p430
(dp431
g26
F-0.5
sg43
F-0.5
ssS"(['-90.0::90.0', '0.0::90.0', '0.0::-90.0', '90.0::0.0', '-90.0::0.0'], [(0, 4, 'bottom'), (1, 0, 'bottom'), (2, 1, 'bottom'), (3, 2, 'bottom'), (4, 3, 'bottom')])"
p432
(dp433
g27
F-0.5
ssS"(['-90.0::0.0', '90.0::0.0', '90.0::0.0', '0.0::0.0', '-90.0::0.0'], [(1, 0, 'bottom'), (2, 1, 'bottom'), (3, 2, 'bottom'), (4, 3, 'bottom')])"
p434
(dp435
g9
F-0.5
sg34
F-0.5
ssS"(['-90.0::0.0', '-90.0::90.0', '0.0::90.0', '0.0::0.0', '-90.0::90.0'], [(0, 4, 'bottom'), (1, 0, 'bottom'), (2, 1, 'bottom'), (3, 2, 'bottom'), (4, 3, 'bottom')])"
p436
(dp437
g13
F-0.5
ssS"(['-90.0::0.0', '0.0::90.0', '0.0::90.0', '90.0::-90.0', '-90.0::-90.0'], [(0, 4, 'bottom'), (1, 0, 'bottom'), (2, 1, 'bottom'), (3, 2, 'bottom'), (4, 3, 'bottom')])"
p438
(dp439
g31
F-0.5
sg20
F-0.5
sg16
F-0.5
ssS"(['-90.0::0.0', '0.0::0.0', '-90.0::0.0', '0.0::0.0', '-90.0::0.0'], [(1, 0, 'bottom'), (2, 1, 'bottom'), (3, 2, 'bottom'), (4, 3, 'bottom')])"
p440
(dp441
g9
F-0.5
sg24
F-0.5
ssS"(['-90.0::90.0', '0.0::90.0', '0.0::0.0', '0.0::0.0', '0.0::90.0'], [(1, 0, 'bottom'), (2, 1, 'bottom'), (3, 2, 'bottom'), (4, 3, 'bottom')])"
p442
(dp443
g19
F-0.5
sg14
F-0.5
sg11
F-0.5
sg39
F-0.5
sg35
F-0.5
sg42
F-0.5
sg43
F-0.5
sg17
F-0.5
ssS"(['90.0::0.0', '0.0::90.0', '0.0::90.0', '90.0::0.0', '-90.0::0.0'], [(1, 0, 'bottom'), (2, 1, 'bottom'), (3, 2, 'bottom'), (4, 3, 'bottom')])"
p444
(dp445
g18
F-0.5
sg19
F-0.5
sg32
F-0.5
sg12
F-0.5
sg14
F-0.5
sg26
F-0.5
sg43
F-0.5
sg17
F-0.5
ssS"(['90.0::0.0', '0.0::0.0', '0.0::90.0', '0.0::0.0', '0.0::0.0'], [(1, 0, 'bottom'), (2, 1, 'bottom'), (3, 2, 'bottom'), (4, 3, 'bottom')])"
p446
(dp447
g21
F-0.5
ssS"(['-90.0::-90.0', '-90.0::90.0', '0.0::90.0', '0.0::0.0', '-90.0::0.0'], [(1, 0, 'bottom'), (2, 1, 'bottom'), (3, 2, 'bottom'), (4, 3, 'bottom')])"
p448
(dp449
g10
F1.4858308580290576
ssS"(['90.0::-90.0', '-90.0::0.0', '90.0::0.0', '-90.0::90.0', '-90.0::-90.0'], [(1, 0, 'bottom'), (2, 1, 'bottom'), (3, 2, 'bottom'), (4, 3, 'bottom')])"
p450
(dp451
g39
F0.5
sg35
F-0.5
sg15
F-0.5
sg12
F-0.5
ssS"(['0.0::90.0', '0.0::90.0', '90.0::0.0', '0.0::0.0', '-90.0::90.0'], [(1, 0, 'bottom'), (2, 1, 'bottom'), (3, 2, 'bottom'), (4, 3, 'bottom')])"
p452
(dp453
g38
F-0.5
ssS"(['0.0::0.0', '0.0::0.0', '90.0::-90.0', '-90.0::-90.0', '0.0::90.0'], [(1, 0, 'bottom'), (2, 1, 'bottom'), (3, 2, 'bottom'), (4, 3, 'bottom')])"
p454
(dp455
g25
F0.5
ssS"(['-90.0::0.0', '-90.0::0.0', '0.0::90.0', '0.0::-90.0', '0.0::-90.0'], [(0, 4, 'bottom'), (1, 0, 'bottom'), (2, 1, 'bottom'), (3, 2, 'bottom'), (4, 3, 'bottom')])"
p456
(dp457
g27
F-0.5
ssS"(['0.0::-90.0', '-90.0::90.0', '90.0::-90.0', '0.0::0.0', '0.0::0.0'], [(1, 0, 'bottom'), (2, 1, 'bottom'), (3, 2, 'bottom'), (4, 3, 'bottom')])"
p458
(dp459
g22
F-0.5
sg19
F-0.5
ssS"(['0.0::-90.0', '0.0::-90.0', '0.0::90.0', '-90.0::0.0', '-90.0::-90.0'], [(1, 0, 'bottom'), (2, 1, 'bottom'), (3, 2, 'bottom'), (4, 3, 'bottom')])"
p460
(dp461
g43
F-0.5
sg23
F-0.5
sg37
F-0.5
sg21
F0.5
ssS"(['90.0::-90.0', '0.0::0.0', '0.0::90.0', '-90.0::90.0', '0.0::0.0'], [(1, 0, 'bottom'), (2, 1, 'bottom'), (3, 2, 'bottom'), (4, 3, 'bottom')])"
p462
(dp463
g27
F-0.5
sg15
F-0.5
sg20
F-0.5
sg31
F-0.5
sg32
F-0.5
sg33
F-0.5
sg38
F-0.75
ssS"(['90.0::-90.0', '0.0::90.0', '0.0::90.0', '-90.0::0.0', '-90.0::0.0'], [(1, 0, 'bottom'), (2, 1, 'bottom'), (3, 2, 'bottom'), (4, 3, 'bottom')])"
p464
(dp465
g17
F0.5
ssS"(['0.0::0.0', '0.0::90.0', '-90.0::90.0', '90.0::-90.0', '0.0::0.0'], [(1, 0, 'bottom'), (2, 1, 'bottom'), (3, 2, 'bottom'), (4, 3, 'bottom')])"
p466
(dp467
g29
F-0.5
ssS"(['0.0::0.0', '0.0::0.0', '0.0::90.0', '0.0::0.0', '-90.0::-90.0'], [(0, 4, 'bottom'), (1, 0, 'bottom'), (2, 1, 'bottom'), (3, 2, 'bottom'), (4, 3, 'bottom')])"
p468
(dp469
g10
F-0.5
ssS"(['-90.0::0.0', '0.0::90.0', '0.0::90.0', '-90.0::0.0', '90.0::0.0'], [(0, 4, 'bottom'), (1, 0, 'bottom'), (2, 1, 'bottom'), (3, 2, 'bottom'), (4, 3, 'bottom')])"
p470
(dp471
g26
F-0.5
sg15
F-0.75
ssS"(['-90.0::90.0', '0.0::-90.0', '0.0::90.0', '0.0::90.0', '-90.0::0.0'], [(1, 0, 'bottom'), (2, 1, 'bottom'), (3, 2, 'bottom'), (4, 3, 'bottom')])"
p472
(dp473
g26
F0.5
sg33
F-0.5
ssS"(['-90.0::-90.0', '0.0::90.0', '0.0::90.0', '0.0::0.0', '0.0::0.0'], [(0, 4, 'bottom'), (1, 0, 'bottom'), (2, 1, 'bottom'), (3, 2, 'bottom'), (4, 3, 'bottom')])"
p474
(dp475
g42
F-0.5
sg39
F-0.5
sg10
F-0.5
ssS"(['-90.0::-90.0', '-90.0::90.0', '-90.0::90.0', '0.0::-90.0', '90.0::90.0'], [(1, 0, 'bottom'), (2, 1, 'bottom'), (3, 2, 'bottom'), (4, 3, 'bottom')])"
p476
(dp477
g9
F-0.5
sg15
F-0.5
sg37
F-0.5
sg17
F0.5
ssS"(['-90.0::90.0', '0.0::90.0', '-90.0::90.0', '0.0::0.0', '0.0::0.0'], [(0, 4, 'bottom'), (1, 0, 'bottom'), (2, 1, 'bottom'), (3, 2, 'bottom'), (4, 3, 'bottom')])"
p478
(dp479
g21
F-0.5
sg17
F-0.5
ssS"(['-90.0::90.0', '0.0::90.0', '0.0::0.0', '0.0::0.0', '-90.0::90.0'], [(1, 0, 'bottom'), (2, 1, 'bottom'), (3, 2, 'bottom'), (4, 3, 'bottom')])"
p480
(dp481
g39
F-0.5
sg12
F-0.5
sg21
F0.5
ssS"(['-90.0::0.0', '0.0::-90.0', '90.0::-90.0', '-90.0::-90.0', '-90.0::-90.0'], [(1, 0, 'bottom'), (2, 1, 'bottom'), (3, 2, 'bottom'), (4, 3, 'bottom')])"
p482
(dp483
g41
F-0.5
ssS"(['-90.0::0.0', '0.0::90.0', '0.0::90.0', '0.0::-90.0', '-90.0::-90.0'], [(1, 0, 'bottom'), (2, 1, 'bottom'), (3, 2, 'bottom'), (4, 3, 'bottom')])"
p484
(dp485
g24
F-0.5
ssS"(['-90.0::0.0', '-90.0::0.0', '0.0::0.0', '90.0::0.0', '-90.0::0.0'], [(1, 0, 'bottom'), (2, 1, 'bottom'), (3, 2, 'bottom'), (4, 3, 'bottom')])"
p486
(dp487
g34
F-0.5
ssS"(['-90.0::-90.0', '0.0::0.0', '0.0::90.0', '0.0::90.0', '0.0::0.0'], [(1, 0, 'bottom'), (2, 1, 'bottom'), (3, 2, 'bottom'), (4, 3, 'bottom')])"
p488
(dp489
g41
F-0.5
ssS"(['-90.0::-90.0', '0.0::0.0', '-90.0::0.0', '90.0::0.0', '0.0::0.0'], [(1, 0, 'bottom'), (2, 1, 'bottom'), (3, 2, 'bottom'), (4, 3, 'bottom')])"
p490
(dp491
g29
F-0.5
ssS"(['-90.0::0.0', '0.0::0.0', '-90.0::90.0', '-90.0::0.0', '-90.0::-90.0'], [(1, 0, 'bottom'), (2, 1, 'bottom'), (3, 2, 'bottom'), (4, 3, 'bottom')])"
p492
(dp493
g18
F-0.5
sg9
F-0.5
sg32
F-0.5
sg28
F0.5
sg12
F-0.5
sg33
F-0.5
sg22
F-0.5
sg17
F-0.5
ssS"(['0.0::-90.0', '-90.0::0.0', '90.0::-90.0', '0.0::0.0', '-90.0::-90.0'], [(1, 0, 'bottom'), (2, 1, 'bottom'), (3, 2, 'bottom'), (4, 3, 'bottom')])"
p494
(dp495
g42
F-0.5
sg26
F-0.5
ssS"(['-90.0::-90.0', '90.0::0.0', '-90.0::0.0', '0.0::0.0', '-90.0::-90.0'], [(1, 0, 'bottom'), (2, 1, 'bottom'), (3, 2, 'bottom'), (4, 3, 'bottom')])"
p496
(dp497
g29
F-0.5
ssS"(['-90.0::-90.0', '0.0::0.0', '0.0::0.0', '0.0::0.0', '-90.0::-90.0'], [(1, 0, 'bottom'), (2, 1, 'bottom'), (3, 2, 'bottom'), (4, 3, 'bottom')])"
p498
(dp499
g40
F-0.5
ssS"(['-90.0::0.0', '90.0::-90.0', '0.0::90.0', '90.0::0.0', '-90.0::-90.0'], [(0, 4, 'bottom'), (1, 0, 'bottom'), (2, 1, 'bottom'), (3, 2, 'bottom'), (4, 3, 'bottom')])"
p500
(dp501
g18
F0.5
ssS"(['-90.0::90.0', '0.0::90.0', '0.0::-90.0', '0.0::0.0', '-90.0::0.0'], [(0, 4, 'bottom'), (1, 0, 'bottom'), (2, 1, 'bottom'), (3, 2, 'bottom'), (4, 3, 'bottom')])"
p502
(dp503
g42
F-0.5
sg14
F-0.5
sg43
F-0.5
ssS"(['-90.0::90.0', '0.0::0.0', '0.0::90.0', '0.0::0.0', '90.0::-90.0'], [(1, 0, 'bottom'), (2, 1, 'bottom'), (3, 2, 'bottom'), (4, 3, 'bottom')])"
p504
(dp505
g22
F-0.5
sg13
F0.5
sg37
F-0.5
sg38
F-0.5
ssS"(['-90.0::0.0', '0.0::0.0', '90.0::90.0', '0.0::0.0', '-90.0::-90.0'], [(0, 4, 'bottom'), (1, 0, 'bottom'), (2, 1, 'bottom'), (3, 2, 'bottom'), (4, 3, 'bottom')])"
p506
(dp507
g29
F-0.5
ssS"(['-90.0::0.0', '90.0::90.0', '90.0::90.0', '0.0::0.0', '-90.0::90.0'], [(0, 4, 'bottom'), (1, 0, 'bottom'), (2, 1, 'bottom'), (3, 2, 'bottom'), (4, 3, 'bottom')])"
p508
(dp509
g40
F-0.5
ssS"(['-90.0::-90.0', '90.0::90.0', '0.0::90.0', '-90.0::0.0', '-90.0::90.0'], [(0, 4, 'bottom'), (1, 0, 'bottom'), (2, 1, 'bottom'), (3, 2, 'bottom'), (4, 3, 'bottom')])"
p510
(dp511
g38
F-0.5
sg30
F-0.5
sg39
F-0.5
sg31
F-0.5
sg35
F-0.5
ssS"(['-90.0::0.0', '-90.0::90.0', '-90.0::90.0', '0.0::-90.0', '0.0::90.0'], [(1, 0, 'bottom'), (2, 1, 'bottom'), (3, 2, 'bottom'), (4, 3, 'bottom')])"
p512
(dp513
g18
F-0.5
sg9
F-0.5
sg21
F-0.5
sg39
F-0.5
sg33
F-0.5
sg16
F-0.5
sg35
F-0.5
ssS"(['-90.0::0.0', '0.0::90.0', '0.0::90.0', '0.0::-90.0', '-90.0::90.0'], [(0, 4, 'bottom'), (1, 0, 'bottom'), (2, 1, 'bottom'), (3, 2, 'bottom'), (4, 3, 'bottom')])"
p514
(dp515
g17
F-0.5
ssS"(['-90.0::0.0', '90.0::90.0', '0.0::90.0', '0.0::-90.0', '-90.0::0.0'], [(0, 4, 'bottom'), (1, 0, 'bottom'), (2, 1, 'bottom'), (3, 2, 'bottom'), (4, 3, 'bottom')])"
p516
(dp517
g19
F-0.5
sg35
F-0.5
sg42
F-0.75
sg30
F-0.5
sg40
F-0.5
sg22
F-0.5
sg38
F-0.5
sg11
F-0.5
ssS"(['-90.0::0.0', '0.0::90.0', '0.0::90.0', '90.0::0.0', '0.0::0.0'], [(0, 4, 'bottom'), (1, 0, 'bottom'), (2, 1, 'bottom'), (3, 2, 'bottom'), (4, 3, 'bottom')])"
p518
(dp519
g34
F-0.5
ssS"(['-90.0::0.0', '0.0::90.0', '0.0::90.0', '90.0::0.0', '-90.0::90.0'], [(1, 0, 'bottom'), (2, 1, 'bottom'), (3, 2, 'bottom'), (4, 3, 'bottom')])"
p520
(dp521
g36
F-0.5
sg22
F2.0653420177767066
sg20
F-0.5
sg17
F-0.5
ssS"(['-90.0::0.0', '0.0::90.0', '90.0::90.0', '0.0::0.0', '-90.0::0.0'], [(1, 0, 'bottom'), (2, 1, 'bottom'), (3, 2, 'bottom'), (4, 3, 'bottom')])"
p522
(dp523
g18
F-0.125
sg28
F0.75
sg37
F-0.125
sg14
F-0.13410186767578125
sg31
F-0.5
sg34
F-0.75
sg40
F1.9967334256419926
sg22
F-0.5
sg23
F-0.5
sg25
F-0.5
ssS"(['-90.0::0.0', '0.0::0.0', '-90.0::90.0', '-90.0::0.0', '-90.0::0.0'], [(1, 0, 'bottom'), (2, 1, 'bottom'), (3, 2, 'bottom'), (4, 3, 'bottom')])"
p524
(dp525
g28
F0.5
sg37
F-0.5
ssS"(['-90.0::0.0', '0.0::90.0', '0.0::90.0', '90.0::0.0', '-90.0::-90.0'], [(0, 4, 'bottom'), (1, 0, 'bottom'), (2, 1, 'bottom'), (3, 2, 'bottom'), (4, 3, 'bottom')])"
p526
(dp527
g22
F-0.5
sg39
F-0.5
ssS"(['-90.0::0.0', '0.0::90.0', '0.0::90.0', '0.0::0.0', '-90.0::0.0'], [(1, 0, 'bottom'), (2, 1, 'bottom'), (3, 2, 'bottom'), (4, 3, 'bottom')])"
p528
(dp529
g9
F2.0165154277381343
sg11
F1.6191520105631623
sg29
F-0.875
sg13
F1.720460802746848
sg14
F2.4460891205987254
sg40
F0.1563262939453125
sg17
F1.9836564913280903
sg18
F1.7967492158159901
sg19
F1.8466284736310761
sg20
F1.9225255301923423
sg21
F1.9560546875
sg22
F-0.5
sg25
F2.5274410181966456
sg24
F-0.9375
sg23
F-0.3125
sg26
F0.5
sg27
F3.8643768049868328
sg15
F2.0006193466602564
sg12
F1.6041446935644383
sg30
F-0.9921875
sg31
F-0.96875
sg32
F1.4139600795438982
sg34
F-0.998046875
sg33
F1.6045598330556745
sg35
F1.7355748952993417
sg36
F1.7013597918335572
sg28
F0.9375
sg37
F1.9680199687036461
sg38
F1.9844664136271355
sg39
F-0.5
sg16
F-0.5
sg41
F-0.734375
sg42
F2.0606298770759892
sg43
F1.6051460240193907
ssS"(['-90.0::-90.0', '90.0::90.0', '0.0::90.0', '0.0::90.0', '-90.0::0.0'], [(1, 0, 'bottom'), (2, 1, 'bottom'), (3, 2, 'bottom'), (4, 3, 'bottom')])"
p530
(dp531
g42
F-0.25
sg16
F0.5
sg24
F-0.5
ssS"(['-90.0::0.0', '0.0::90.0', '-90.0::0.0', '90.0::-90.0', '-90.0::0.0'], [(0, 4, 'bottom'), (1, 0, 'bottom'), (2, 1, 'bottom'), (3, 2, 'bottom'), (4, 3, 'bottom')])"
p532
(dp533
g36
F-0.75
sg18
F0.5
sg37
F-0.5
ssS"(['-90.0::-90.0', '0.0::0.0', '0.0::0.0', '-90.0::90.0', '90.0::0.0'], [(1, 0, 'bottom'), (2, 1, 'bottom'), (3, 2, 'bottom'), (4, 3, 'bottom')])"
p534
(dp535
g15
F-0.5
sg17
F0.5
ssS"(['-90.0::0.0', '0.0::0.0', '-90.0::90.0', '-90.0::0.0', '-90.0::0.0'], [(0, 4, 'bottom'), (1, 0, 'bottom'), (2, 1, 'bottom'), (3, 2, 'bottom'), (4, 3, 'bottom')])"
p536
(dp537
g18
F0.5
sg10
F-0.5
ssS"(['-90.0::-90.0', '0.0::90.0', '0.0::90.0', '0.0::90.0', '-90.0::0.0'], [(1, 0, 'bottom'), (2, 1, 'bottom'), (3, 2, 'bottom'), (4, 3, 'bottom')])"
p538
(dp539
g10
F-0.25
sg20
F-0.5
sg17
F4.3582155549817596
sg29
F-0.5
sg24
F-0.5
ssS"(['-90.0::0.0', '0.0::90.0', '90.0::90.0', '0.0::90.0', '-90.0::0.0'], [(1, 0, 'bottom'), (2, 1, 'bottom'), (3, 2, 'bottom'), (4, 3, 'bottom')])"
p540
(dp541
g28
F0.5
sg23
F-0.5
ssS"(['-90.0::0.0', '0.0::0.0', '0.0::90.0', '0.0::0.0', '0.0::90.0'], [(1, 0, 'bottom'), (2, 1, 'bottom'), (3, 2, 'bottom'), (4, 3, 'bottom')])"
p542
(dp543
g42
F-0.5
sg38
F-0.5
sg11
F-0.5
sg29
F-0.5
sg30
F-0.5
ssS"(['0.0::90.0', '-90.0::0.0', '-90.0::-90.0', '0.0::0.0', '0.0::90.0'], [(1, 0, 'bottom'), (2, 1, 'bottom'), (3, 2, 'bottom'), (4, 3, 'bottom')])"
p544
(dp545
g29
F-0.5
ssS"(['-90.0::0.0', '0.0::0.0', '90.0::0.0', '0.0::-90.0', '0.0::-90.0'], [(1, 0, 'bottom'), (2, 1, 'bottom'), (3, 2, 'bottom'), (4, 3, 'bottom')])"
p546
(dp547
g9
F-0.5
sg30
F-0.5
ssS"(['-90.0::90.0', '-90.0::0.0', '0.0::0.0', '-90.0::-90.0', '0.0::0.0'], [(1, 0, 'bottom'), (2, 1, 'bottom'), (3, 2, 'bottom'), (4, 3, 'bottom')])"
p548
(dp549
g36
F-0.5
sg9
F-0.5
sg23
F-0.5
sg33
F-0.5
ssS"(['-90.0::0.0', '90.0::90.0', '0.0::90.0', '-90.0::0.0', '-90.0::0.0'], [(0, 4, 'bottom'), (1, 0, 'bottom'), (2, 1, 'bottom'), (3, 2, 'bottom'), (4, 3, 'bottom')])"
p550
(dp551
g39
F-0.5
ssS"(['-90.0::0.0', '0.0::0.0', '0.0::0.0', '-90.0::90.0', '90.0::0.0'], [(1, 0, 'bottom'), (2, 1, 'bottom'), (3, 2, 'bottom'), (4, 3, 'bottom')])"
p552
(dp553
g9
F-0.5
sg10
F-0.5
ssS"(['0.0::0.0', '0.0::0.0', '90.0::-90.0', '-90.0::0.0', '-90.0::90.0'], [(1, 0, 'bottom'), (2, 1, 'bottom'), (3, 2, 'bottom'), (4, 3, 'bottom')])"
p554
(dp555
g21
F0.5
ssS"(['-90.0::0.0', '90.0::90.0', '0.0::90.0', '0.0::0.0', '-90.0::90.0'], [(0, 4, 'bottom'), (1, 0, 'bottom'), (2, 1, 'bottom'), (3, 2, 'bottom'), (4, 3, 'bottom')])"
p556
(dp557
g38
F-0.5
sg20
F-0.5
sg21
F-0.5
ssS"(['-90.0::0.0', '0.0::0.0', '0.0::0.0', '0.0::90.0', '-90.0::0.0'], [(1, 0, 'bottom'), (2, 1, 'bottom'), (3, 2, 'bottom'), (4, 3, 'bottom')])"
p558
(dp559
g38
F-0.5
ssS"(['-90.0::0.0', '0.0::-90.0', '90.0::-90.0', '0.0::-90.0', '-90.0::0.0'], [(1, 0, 'bottom'), (2, 1, 'bottom'), (3, 2, 'bottom'), (4, 3, 'bottom')])"
p560
(dp561
g31
F-0.5
sg32
F-0.5
sg16
F-0.5
ssS"(['-90.0::0.0', '0.0::0.0', '0.0::0.0', '-90.0::0.0', '-90.0::0.0'], [(1, 0, 'bottom'), (2, 1, 'bottom'), (3, 2, 'bottom'), (4, 3, 'bottom')])"
p562
(dp563
g26
F1.625
ssS"(['-90.0::90.0', '0.0::-90.0', '-90.0::90.0', '0.0::90.0', '0.0::0.0'], [(1, 0, 'bottom'), (2, 1, 'bottom'), (3, 2, 'bottom'), (4, 3, 'bottom')])"
p564
(dp565
g41
F-0.5
ssS"(['-90.0::0.0', '-90.0::-90.0', '0.0::90.0', '0.0::-90.0', '0.0::-90.0'], [(0, 4, 'bottom'), (1, 0, 'bottom'), (2, 1, 'bottom'), (3, 2, 'bottom'), (4, 3, 'bottom')])"
p566
(dp567
g27
F-0.5
sg35
F-0.5
sg18
F0.5
ssS"(['0.0::0.0', '90.0::90.0', '90.0::90.0', '0.0::-90.0', '-90.0::90.0'], [(1, 0, 'bottom'), (2, 1, 'bottom'), (3, 2, 'bottom'), (4, 3, 'bottom')])"
p568
(dp569
g29
F-0.5
ssS"(['0.0::90.0', '-90.0::0.0', '0.0::-90.0', '0.0::0.0', '-90.0::90.0'], [(1, 0, 'bottom'), (2, 1, 'bottom'), (3, 2, 'bottom'), (4, 3, 'bottom')])"
p570
(dp571
g40
F-0.5
ssS"(['-90.0::90.0', '0.0::0.0', '-90.0::0.0', '-90.0::-90.0', '-90.0::0.0'], [(1, 0, 'bottom'), (2, 1, 'bottom'), (3, 2, 'bottom'), (4, 3, 'bottom')])"
p572
(dp573
g42
F-0.5
sg27
F-0.5
sg23
F0.5
sg40
F-0.5
sg20
F-0.5
ssS"(['-90.0::90.0', '0.0::0.0', '0.0::-90.0', '90.0::0.0', '-90.0::0.0'], [(0, 4, 'bottom'), (1, 0, 'bottom'), (2, 1, 'bottom'), (3, 2, 'bottom'), (4, 3, 'bottom')])"
p574
(dp575
g39
F-0.5
ssS"(['-90.0::0.0', '0.0::90.0', '90.0::90.0', '0.0::0.0', '-90.0::-90.0'], [(1, 0, 'bottom'), (2, 1, 'bottom'), (3, 2, 'bottom'), (4, 3, 'bottom')])"
p576
(dp577
g27
F0.5
sg37
F-0.5
ssS"(['0.0::-90.0', '0.0::90.0', '0.0::90.0', '0.0::90.0', '-90.0::0.0'], [(1, 0, 'bottom'), (2, 1, 'bottom'), (3, 2, 'bottom'), (4, 3, 'bottom')])"
p578
(dp579
g36
F-0.5
ssS"(['-90.0::90.0', '0.0::0.0', '0.0::90.0', '0.0::0.0', '-90.0::0.0'], [(1, 0, 'bottom'), (2, 1, 'bottom'), (3, 2, 'bottom'), (4, 3, 'bottom')])"
p580
(dp581
g39
F-0.5
sg20
F-0.5
ssS"(['-90.0::0.0', '90.0::90.0', '0.0::90.0', '0.0::90.0', '-90.0::0.0'], [(1, 0, 'bottom'), (2, 1, 'bottom'), (3, 2, 'bottom'), (4, 3, 'bottom')])"
p582
(dp583
g38
F-0.5
sg20
F-0.5
sg29
F-0.5
ssS"(['-90.0::0.0', '0.0::90.0', '-90.0::0.0', '0.0::0.0', '-90.0::90.0'], [(0, 4, 'bottom'), (1, 0, 'bottom'), (2, 1, 'bottom'), (3, 2, 'bottom'), (4, 3, 'bottom')])"
p584
(dp585
g30
F-0.5
ssS"(['-90.0::90.0', '0.0::0.0', '-90.0::90.0', '-90.0::0.0', '0.0::-90.0'], [(1, 0, 'bottom'), (2, 1, 'bottom'), (3, 2, 'bottom'), (4, 3, 'bottom')])"
p586
(dp587
g13
F0.5
ssS"(['-90.0::0.0', '0.0::90.0', '90.0::90.0', '-90.0::0.0', '-90.0::0.0'], [(0, 4, 'bottom'), (1, 0, 'bottom'), (2, 1, 'bottom'), (3, 2, 'bottom'), (4, 3, 'bottom')])"
p588
(dp589
g22
F-0.5
sg19
F-0.5
ssS"(['-90.0::0.0', '0.0::0.0', '0.0::0.0', '90.0::0.0', '-90.0::0.0'], [(1, 0, 'bottom'), (2, 1, 'bottom'), (3, 2, 'bottom'), (4, 3, 'bottom')])"
p590
(dp591
g30
F-0.5
ssS"(['-90.0::-90.0', '90.0::0.0', '90.0::0.0', '90.0::0.0', '0.0::90.0'], [(0, 4, 'bottom'), (1, 0, 'bottom'), (2, 1, 'bottom'), (3, 2, 'bottom'), (4, 3, 'bottom')])"
p592
(dp593
g26
F-0.5
ssS"(['-90.0::0.0', '-90.0::0.0', '0.0::90.0', '0.0::0.0', '0.0::-90.0'], [(1, 0, 'bottom'), (2, 1, 'bottom'), (3, 2, 'bottom'), (4, 3, 'bottom')])"
p594
(dp595
g22
F-0.75
sg43
F-0.5
sg32
F-0.5
sg29
F-0.5
ssS"(['-90.0::0.0', '0.0::0.0', '0.0::90.0', '90.0::0.0', '0.0::0.0'], [(1, 0, 'bottom'), (2, 1, 'bottom'), (3, 2, 'bottom'), (4, 3, 'bottom')])"
p596
(dp597
g21
F-0.5
sg39
F-0.5
sg32
F-0.5
sg14
F-0.5
sg41
F-0.5
sg36
F-0.5
ssS"(['0.0::0.0', '0.0::90.0', '0.0::0.0', '0.0::90.0', '-90.0::0.0'], [(1, 0, 'bottom'), (2, 1, 'bottom'), (3, 2, 'bottom'), (4, 3, 'bottom')])"
p598
(dp599
g41
F-0.5
ssS"(['-90.0::0.0', '-90.0::-90.0', '0.0::90.0', '-90.0::0.0', '-90.0::-90.0'], [(1, 0, 'bottom'), (2, 1, 'bottom'), (3, 2, 'bottom'), (4, 3, 'bottom')])"
p600
(dp601
g13
F-0.5
ssS"(['-90.0::0.0', '0.0::0.0', '0.0::90.0', '0.0::0.0', '-90.0::90.0'], [(1, 0, 'bottom'), (2, 1, 'bottom'), (3, 2, 'bottom'), (4, 3, 'bottom')])"
p602
(dp603
g19
F-0.25
sg21
F0.75
ssS"(['-90.0::-90.0', '-90.0::90.0', '0.0::90.0', '0.0::0.0', '-90.0::0.0'], [(0, 4, 'bottom'), (1, 0, 'bottom'), (2, 1, 'bottom'), (3, 2, 'bottom'), (4, 3, 'bottom')])"
p604
(dp605
g36
F-0.5
sg35
F-0.5
sg19
F-0.5
sg23
F-0.5
sg16
F-0.5
ssS"(['-90.0::-90.0', '0.0::90.0', '0.0::90.0', '0.0::0.0', '0.0::-90.0'], [(1, 0, 'bottom'), (2, 1, 'bottom'), (3, 2, 'bottom'), (4, 3, 'bottom')])"
p606
(dp607
g23
F-0.5
ssS"(['0.0::-90.0', '90.0::0.0', '90.0::0.0', '90.0::0.0', '0.0::90.0'], [(0, 4, 'bottom'), (1, 0, 'bottom'), (2, 1, 'bottom'), (3, 2, 'bottom'), (4, 3, 'bottom')])"
p608
(dp609
g30
F-0.5
ssS"(['-90.0::0.0', '0.0::90.0', '90.0::90.0', '90.0::0.0', '-90.0::0.0'], [(1, 0, 'bottom'), (2, 1, 'bottom'), (3, 2, 'bottom'), (4, 3, 'bottom')])"
p610
(dp611
g9
F0.11589813232421875
sg20
F0.11589813232421875
sg30
F-0.5
sg40
F2.2629442018223926
ssS"(['-90.0::90.0', '0.0::90.0', '0.0::90.0', '0.0::-90.0', '-90.0::0.0'], [(0, 4, 'bottom'), (1, 0, 'bottom'), (2, 1, 'bottom'), (3, 2, 'bottom'), (4, 3, 'bottom')])"
p612
(dp613
g40
F-0.5
ssS"(['-90.0::-90.0', '0.0::90.0', '0.0::90.0', '90.0::0.0', '-90.0::0.0'], [(1, 0, 'bottom'), (2, 1, 'bottom'), (3, 2, 'bottom'), (4, 3, 'bottom')])"
p614
(dp615
g34
F-0.5
ssS"(['-90.0::90.0', '0.0::90.0', '0.0::90.0', '0.0::0.0', '-90.0::0.0'], [(0, 4, 'bottom'), (1, 0, 'bottom'), (2, 1, 'bottom'), (3, 2, 'bottom'), (4, 3, 'bottom')])"
p616
(dp617
g19
F-0.5
sg28
F-0.5
sg21
F-0.5
sg37
F-0.5
sg38
F-0.5
sg30
F-0.5
sg31
F-0.5
sg32
F0.62033822981064413
sg13
F2.8231997129301472
sg40
F-0.5
sg35
F-0.5
sg25
F-0.5
sg24
F-0.75
ssS"(['90.0::-90.0', '-90.0::0.0', '90.0::-90.0', '-90.0::90.0', '-90.0::-90.0'], [(1, 0, 'bottom'), (2, 1, 'bottom'), (3, 2, 'bottom'), (4, 3, 'bottom')])"
p618
(dp619
g38
F0.5
sg19
F-0.25
ssS"(['-90.0::-90.0', '0.0::90.0', '0.0::90.0', '-90.0::0.0', '0.0::-90.0'], [(0, 4, 'bottom'), (1, 0, 'bottom'), (2, 1, 'bottom'), (3, 2, 'bottom'), (4, 3, 'bottom')])"
p620
(dp621
g39
F-0.5
ssS"(['-90.0::0.0', '0.0::0.0', '0.0::90.0', '0.0::90.0', '0.0::-90.0'], [(1, 0, 'bottom'), (2, 1, 'bottom'), (3, 2, 'bottom'), (4, 3, 'bottom')])"
p622
(dp623
g38
F-0.5
sg11
F-0.5
sg39
F0.5
sg15
F-0.75
sg18
F-0.5
ssS"(['-90.0::0.0', '0.0::0.0', '0.0::90.0', '0.0::-90.0', '-90.0::0.0'], [(1, 0, 'bottom'), (2, 1, 'bottom'), (3, 2, 'bottom'), (4, 3, 'bottom')])"
p624
(dp625
g30
F-0.5
ssS"(['0.0::0.0', '0.0::90.0', '0.0::90.0', '0.0::0.0', '-90.0::0.0'], [(0, 4, 'bottom'), (1, 0, 'bottom'), (2, 1, 'bottom'), (3, 2, 'bottom'), (4, 3, 'bottom')])"
p626
(dp627
g18
F0.5
sg19
F-0.5
sg31
F-0.5
sg30
F-0.75
sg39
F-0.5
sg12
F-0.5
sg22
F-0.5
sg28
F-0.5
sg36
F3.275083350284191
ssS"(['-90.0::-90.0', '90.0::-90.0', '90.0::90.0', '0.0::0.0', '-90.0::-90.0'], [(0, 4, 'bottom'), (1, 0, 'bottom'), (2, 1, 'bottom'), (3, 2, 'bottom'), (4, 3, 'bottom')])"
p628
(dp629
g26
F-0.5
ssS"(['-90.0::0.0', '0.0::90.0', '90.0::90.0', '0.0::0.0', '0.0::0.0'], [(1, 0, 'bottom'), (2, 1, 'bottom'), (3, 2, 'bottom'), (4, 3, 'bottom')])"
p630
(dp631
g12
F-0.125
ssS"(['-90.0::0.0', '0.0::-90.0', '90.0::-90.0', '-90.0::-90.0', '-90.0::0.0'], [(1, 0, 'bottom'), (2, 1, 'bottom'), (3, 2, 'bottom'), (4, 3, 'bottom')])"
p632
(dp633
g22
F-0.5
sg33
F-0.5
ssS"(['-90.0::90.0', '0.0::90.0', '0.0::0.0', '90.0::0.0', '-90.0::90.0'], [(1, 0, 'bottom'), (2, 1, 'bottom'), (3, 2, 'bottom'), (4, 3, 'bottom')])"
p634
(dp635
g35
F-0.5
sg23
F-0.5
sg33
F-0.5
sg37
F-0.5
ssS"(['-90.0::0.0', '90.0::90.0', '0.0::90.0', '0.0::0.0', '-90.0::0.0'], [(1, 0, 'bottom'), (2, 1, 'bottom'), (3, 2, 'bottom'), (4, 3, 'bottom')])"
p636
(dp637
g9
F-0.5
sg21
F0.5
sg10
F0.0625
sg28
F1.4375
sg22
F-0.5
sg41
F3.9258149135293046
sg42
F0.0625
ssS"(['-90.0::90.0', '0.0::-90.0', '0.0::90.0', '0.0::0.0', '-90.0::0.0'], [(0, 4, 'bottom'), (1, 0, 'bottom'), (2, 1, 'bottom'), (3, 2, 'bottom'), (4, 3, 'bottom')])"
p638
(dp639
g35
F-0.5
sg20
F-0.5
sg29
F-0.5
ssS"(['0.0::90.0', '0.0::90.0', '90.0::90.0', '0.0::0.0', '-90.0::90.0'], [(1, 0, 'bottom'), (2, 1, 'bottom'), (3, 2, 'bottom'), (4, 3, 'bottom')])"
p640
(dp641
g10
F-0.5
ssS"(['-90.0::0.0', '0.0::90.0', '90.0::90.0', '0.0::0.0', '0.0::-90.0'], [(0, 4, 'bottom'), (1, 0, 'bottom'), (2, 1, 'bottom'), (3, 2, 'bottom'), (4, 3, 'bottom')])"
p642
(dp643
g13
F-0.5
ssS"(['-90.0::0.0', '0.0::90.0', '0.0::90.0', '-90.0::0.0', '-90.0::0.0'], [(0, 4, 'bottom'), (1, 0, 'bottom'), (2, 1, 'bottom'), (3, 2, 'bottom'), (4, 3, 'bottom')])"
p644
(dp645
g9
F-0.5
sg10
F-0.5
sg11
F-0.5
sg12
F-0.5
sg13
F-0.5
sg38
F-0.5
sg17
F-0.5
sg19
F-0.5
sg21
F-0.5
sg22
F-0.5
sg23
F-0.5
sg24
F-0.5
sg27
F-0.75
sg15
F-0.5
sg31
F-0.5
sg30
F-0.75
sg28
F-0.5
sg34
F-0.5
sg35
F-0.5
sg37
F-0.5
sg39
F-0.5
sg40
F-0.75
ssS"(['-90.0::0.0', '0.0::0.0', '0.0::90.0', '-90.0::0.0', '-90.0::0.0'], [(1, 0, 'bottom'), (2, 1, 'bottom'), (3, 2, 'bottom'), (4, 3, 'bottom')])"
p646
(dp647
g27
F-0.5
sg15
F-0.5
sg20
F-0.5
sg39
F-0.5
sg16
F-0.5
sg38
F-0.5
ssS"(['-90.0::90.0', '0.0::90.0', '0.0::90.0', '90.0::0.0', '-90.0::0.0'], [(0, 4, 'bottom'), (1, 0, 'bottom'), (2, 1, 'bottom'), (3, 2, 'bottom'), (4, 3, 'bottom')])"
p648
(dp649
g23
F-0.5
sg33
F-0.5
sg17
F-0.5
ssS"(['-90.0::-90.0', '0.0::0.0', '0.0::90.0', '90.0::90.0', '90.0::0.0'], [(1, 0, 'bottom'), (2, 1, 'bottom'), (3, 2, 'bottom'), (4, 3, 'bottom')])"
p650
(dp651
g32
F-0.5
sg12
F0.5
ssS"(['-90.0::-90.0', '0.0::90.0', '0.0::90.0', '0.0::0.0', '0.0::-90.0'], [(0, 4, 'bottom'), (1, 0, 'bottom'), (2, 1, 'bottom'), (3, 2, 'bottom'), (4, 3, 'bottom')])"
p652
(dp653
g31
F-0.5
ssS"(['-90.0::0.0', '0.0::90.0', '-90.0::90.0', '0.0::0.0', '-90.0::0.0'], [(0, 4, 'bottom'), (1, 0, 'bottom'), (2, 1, 'bottom'), (3, 2, 'bottom'), (4, 3, 'bottom')])"
p654
(dp655
g14
F-0.5
sg16
F-0.5
sg18
F1.229217529296875
ssS"(['-90.0::0.0', '0.0::0.0', '-90.0::0.0', '-90.0::0.0', '-90.0::-90.0'], [(1, 0, 'bottom'), (2, 1, 'bottom'), (3, 2, 'bottom'), (4, 3, 'bottom')])"
p656
(dp657
g28
F-0.5
ssS"(['0.0::0.0', '-90.0::0.0', '-90.0::90.0', '90.0::90.0', '-90.0::0.0'], [(1, 0, 'bottom'), (2, 1, 'bottom'), (3, 2, 'bottom'), (4, 3, 'bottom')])"
p658
(dp659
g21
F0.5
ssS"(['-90.0::0.0', '90.0::90.0', '0.0::90.0', '0.0::-90.0', '-90.0::-90.0'], [(1, 0, 'bottom'), (2, 1, 'bottom'), (3, 2, 'bottom'), (4, 3, 'bottom')])"
p660
(dp661
g41
F0.5
ssS"(['-90.0::0.0', '0.0::-90.0', '90.0::0.0', '-90.0::0.0', '-90.0::0.0'], [(1, 0, 'bottom'), (2, 1, 'bottom'), (3, 2, 'bottom'), (4, 3, 'bottom')])"
p662
(dp663
g36
F-0.5
sg29
F-0.5
ssS"(['0.0::90.0', '0.0::-90.0', '0.0::0.0', '-90.0::0.0', '-90.0::0.0'], [(1, 0, 'bottom'), (2, 1, 'bottom'), (3, 2, 'bottom'), (4, 3, 'bottom')])"
p664
(dp665
g9
F-0.5
sg40
F-0.25
sg17
F-0.5
ssS"(['-90.0::0.0', '0.0::90.0', '90.0::90.0', '-90.0::0.0', '-90.0::0.0'], [(1, 0, 'bottom'), (2, 1, 'bottom'), (3, 2, 'bottom'), (4, 3, 'bottom')])"
p666
(dp667
g27
F0.5
sg31
F-0.5
sg37
F-0.5
ssS"(['-90.0::-90.0', '0.0::0.0', '0.0::90.0', '90.0::90.0', '0.0::0.0'], [(1, 0, 'bottom'), (2, 1, 'bottom'), (3, 2, 'bottom'), (4, 3, 'bottom')])"
p668
(dp669
g12
F-0.5
ssS"(['-90.0::90.0', '0.0::0.0', '-90.0::90.0', '-90.0::0.0', '-90.0::-90.0'], [(1, 0, 'bottom'), (2, 1, 'bottom'), (3, 2, 'bottom'), (4, 3, 'bottom')])"
p670
(dp671
g13
F0.5
ssS"(['-90.0::90.0', '-90.0::90.0', '0.0::0.0', '0.0::0.0', '-90.0::0.0'], [(1, 0, 'bottom'), (2, 1, 'bottom'), (3, 2, 'bottom'), (4, 3, 'bottom')])"
p672
(dp673
g38
F-0.5
ssS"(['-90.0::0.0', '0.0::-90.0', '0.0::0.0', '0.0::0.0', '-90.0::0.0'], [(1, 0, 'bottom'), (2, 1, 'bottom'), (3, 2, 'bottom'), (4, 3, 'bottom')])"
p674
(dp675
g16
F-0.5
ssS"(['-90.0::0.0', '0.0::0.0', '0.0::90.0', '0.0::0.0', '-90.0::0.0'], [(0, 4, 'bottom'), (1, 0, 'bottom'), (2, 1, 'bottom'), (3, 2, 'bottom'), (4, 3, 'bottom')])"
p676
(dp677
g19
F2.8850174029198592
sg15
F-0.75
sg20
F-0.5
sg21
F-0.5
sg10
F-0.5
sg29
F-0.5
sg30
F-0.5
sg12
F-0.5
sg13
F-0.5
sg40
F-0.5
sg22
F-0.5
sg35
F-0.75
sg23
F-0.5
sg16
F-0.5
sg38
F-0.5
sg11
F-0.5
sg17
F-0.5
ssS"(['0.0::0.0', '0.0::90.0', '0.0::90.0', '90.0::0.0', '-90.0::0.0'], [(1, 0, 'bottom'), (2, 1, 'bottom'), (3, 2, 'bottom'), (4, 3, 'bottom')])"
p678
(dp679
g19
F-0.5
sg26
F-0.5
ssS"(['-90.0::-90.0', '0.0::0.0', '90.0::90.0', '90.0::-90.0', '90.0::0.0'], [(0, 4, 'bottom'), (1, 0, 'bottom'), (2, 1, 'bottom'), (3, 2, 'bottom'), (4, 3, 'bottom')])"
p680
(dp681
g42
F-0.5
sg11
F-0.5
sg10
F-0.5
ssS"(['0.0::-90.0', '0.0::-90.0', '0.0::90.0', '-90.0::0.0', '90.0::-90.0'], [(1, 0, 'bottom'), (2, 1, 'bottom'), (3, 2, 'bottom'), (4, 3, 'bottom')])"
p682
(dp683
g42
F-0.5
sg30
F-0.5
ssS"(['0.0::0.0', '-90.0::0.0', '0.0::90.0', '90.0::90.0', '0.0::0.0'], [(1, 0, 'bottom'), (2, 1, 'bottom'), (3, 2, 'bottom'), (4, 3, 'bottom')])"
p684
(dp685
g38
F-0.5
sg15
F-0.5
sg40
F-0.5
ssS"(['-90.0::-90.0', '0.0::0.0', '0.0::90.0', '0.0::0.0', '-90.0::0.0'], [(1, 0, 'bottom'), (2, 1, 'bottom'), (3, 2, 'bottom'), (4, 3, 'bottom')])"
p686
(dp687
g43
F-0.5
sg23
F-0.5
sg33
F-0.5
ssS"(['-90.0::0.0', '0.0::90.0', '0.0::90.0', '0.0::0.0', '0.0::0.0'], [(1, 0, 'bottom'), (2, 1, 'bottom'), (3, 2, 'bottom'), (4, 3, 'bottom')])"
p688
(dp689
g27
F0.984375
sg18
F-0.25
sg28
F0.5
sg15
F-0.265625
sg30
F-0.5
sg31
F-0.5
sg33
F-0.09375
sg40
F-0.5
sg38
F-0.5
sg23
F-0.5
sg43
F-0.5
sg11
F-0.015625
ssS"(['-90.0::90.0', '-90.0::0.0', '-90.0::90.0', '0.0::-90.0', '-90.0::90.0'], [(1, 0, 'bottom'), (2, 1, 'bottom'), (3, 2, 'bottom'), (4, 3, 'bottom')])"
p690
(dp691
g22
F0.5
sg41
F-0.5
ssS"(['-90.0::0.0', '-90.0::0.0', '0.0::90.0', '0.0::0.0', '-90.0::0.0'], [(1, 0, 'bottom'), (2, 1, 'bottom'), (3, 2, 'bottom'), (4, 3, 'bottom')])"
p692
(dp693
g38
F-0.125
sg11
F0.0625
sg14
F-0.5
sg21
F1.53125
sg35
F0.15625
ssS"(['-90.0::0.0', '0.0::90.0', '0.0::90.0', '-90.0::90.0', '-90.0::-90.0'], [(1, 0, 'bottom'), (2, 1, 'bottom'), (3, 2, 'bottom'), (4, 3, 'bottom')])"
p694
(dp695
g41
F-0.5
ssS"(['-90.0::0.0', '0.0::0.0', '90.0::90.0', '0.0::0.0', '-90.0::-90.0'], [(1, 0, 'bottom'), (2, 1, 'bottom'), (3, 2, 'bottom'), (4, 3, 'bottom')])"
p696
(dp697
g11
F-0.5
sg29
F-0.5
ssS"(['-90.0::-90.0', '0.0::90.0', '0.0::90.0', '0.0::0.0', '-90.0::90.0'], [(0, 4, 'bottom'), (1, 0, 'bottom'), (2, 1, 'bottom'), (3, 2, 'bottom'), (4, 3, 'bottom')])"
p698
(dp699
g11
F-0.5
sg26
F-0.5
ssS"(['-90.0::-90.0', '0.0::90.0', '0.0::90.0', '-90.0::0.0', '-90.0::0.0'], [(0, 4, 'bottom'), (1, 0, 'bottom'), (2, 1, 'bottom'), (3, 2, 'bottom'), (4, 3, 'bottom')])"
p700
(dp701
g27
F-0.5
ssS"(['-90.0::90.0', '0.0::90.0', '-90.0::90.0', '0.0::0.0', '90.0::0.0'], [(0, 4, 'bottom'), (1, 0, 'bottom'), (2, 1, 'bottom'), (3, 2, 'bottom'), (4, 3, 'bottom')])"
p702
(dp703
g18
F0.5
ssS"(['-90.0::90.0', '0.0::90.0', '-90.0::0.0', '-90.0::-90.0', '-90.0::0.0'], [(1, 0, 'bottom'), (2, 1, 'bottom'), (3, 2, 'bottom'), (4, 3, 'bottom')])"
p704
(dp705
g42
F-0.5
sg27
F0.75
sg36
F-0.25
sg37
F-0.5
sg35
F-0.25
ssS"(['-90.0::0.0', '90.0::90.0', '-90.0::90.0', '0.0::0.0', '0.0::0.0'], [(1, 0, 'bottom'), (2, 1, 'bottom'), (3, 2, 'bottom'), (4, 3, 'bottom')])"
p706
(dp707
g11
F-0.5
sg23
F0.5
ssS"(['-90.0::0.0', '0.0::-90.0', '0.0::-90.0', '0.0::0.0', '-90.0::0.0'], [(1, 0, 'bottom'), (2, 1, 'bottom'), (3, 2, 'bottom'), (4, 3, 'bottom')])"
p708
(dp709
g13
F-0.5
ssS"(['-90.0::0.0', '90.0::90.0', '0.0::0.0', '0.0::-90.0', '0.0::-90.0'], [(1, 0, 'bottom'), (2, 1, 'bottom'), (3, 2, 'bottom'), (4, 3, 'bottom')])"
p710
(dp711
g36
F-0.5
sg30
F-0.5
sg43
F-0.5
ssS"(['-90.0::0.0', '0.0::90.0', '0.0::90.0', '-90.0::-90.0', '-90.0::0.0'], [(1, 0, 'bottom'), (2, 1, 'bottom'), (3, 2, 'bottom'), (4, 3, 'bottom')])"
p712
(dp713
g36
F-0.5
sg33
F-0.5
sg24
F-0.5
ssS"(['-90.0::0.0', '-90.0::90.0', '90.0::-90.0', '0.0::0.0', '0.0::0.0'], [(1, 0, 'bottom'), (2, 1, 'bottom'), (3, 2, 'bottom'), (4, 3, 'bottom')])"
p714
(dp715
g18
F-0.5
sg13
F-0.5
ssS"(['0.0::0.0', '0.0::90.0', '0.0::90.0', '-90.0::0.0', '-90.0::-90.0'], [(1, 0, 'bottom'), (2, 1, 'bottom'), (3, 2, 'bottom'), (4, 3, 'bottom')])"
p716
(dp717
g27
F0.5
sg19
F-0.5
ssS"(['-90.0::90.0', '-90.0::90.0', '0.0::90.0', '0.0::-90.0', '-90.0::0.0'], [(1, 0, 'bottom'), (2, 1, 'bottom'), (3, 2, 'bottom'), (4, 3, 'bottom')])"
p718
(dp719
g40
F-0.5
ssS"(['-90.0::0.0', '0.0::90.0', '0.0::0.0', '0.0::90.0', '-90.0::0.0'], [(0, 4, 'bottom'), (1, 0, 'bottom'), (2, 1, 'bottom'), (3, 2, 'bottom'), (4, 3, 'bottom')])"
p720
(dp721
g42
F-0.5
sg38
F1.5743121055325298
sg29
F-0.5
ssS"(['-90.0::0.0', '0.0::90.0', '0.0::0.0', '0.0::90.0', '0.0::0.0'], [(1, 0, 'bottom'), (2, 1, 'bottom'), (3, 2, 'bottom'), (4, 3, 'bottom')])"
p722
(dp723
g9
F-0.5
sg15
F-0.5
sg20
F-0.5
sg37
F-0.5
sg29
F-0.5
sg19
F-0.5
sg35
F-0.5
ssS"(['-90.0::90.0', '0.0::90.0', '0.0::0.0', '90.0::0.0', '0.0::90.0'], [(1, 0, 'bottom'), (2, 1, 'bottom'), (3, 2, 'bottom'), (4, 3, 'bottom')])"
p724
(dp725
g30
F-0.5
ssS"(['-90.0::0.0', '0.0::90.0', '0.0::0.0', '-90.0::0.0', '-90.0::0.0'], [(0, 4, 'bottom'), (1, 0, 'bottom'), (2, 1, 'bottom'), (3, 2, 'bottom'), (4, 3, 'bottom')])"
p726
(dp727
g23
F-0.5
sg24
F-0.5
ssS"(['-90.0::0.0', '0.0::0.0', '0.0::90.0', '0.0::0.0', '90.0::-90.0'], [(1, 0, 'bottom'), (2, 1, 'bottom'), (3, 2, 'bottom'), (4, 3, 'bottom')])"
p728
(dp729
g26
F0.5
sg17
F-0.5
ssS"(['0.0::0.0', '0.0::90.0', '-90.0::90.0', '0.0::0.0', '-90.0::-90.0'], [(0, 4, 'bottom'), (1, 0, 'bottom'), (2, 1, 'bottom'), (3, 2, 'bottom'), (4, 3, 'bottom')])"
p730
(dp731
g9
F-0.5
sg15
F-0.5
sg32
F-0.5
sg12
F-0.5
sg33
F-0.5
sg38
F-0.5
sg23
F-0.5
sg43
F-0.5
ssS"(['-90.0::0.0', '-90.0::90.0', '-90.0::90.0', '-90.0::90.0', '0.0::90.0'], [(1, 0, 'bottom'), (2, 1, 'bottom'), (3, 2, 'bottom'), (4, 3, 'bottom')])"
p732
(dp733
g15
F-0.5
sg34
F-0.5
ssS"(['-90.0::0.0', '0.0::0.0', '0.0::90.0', '0.0::0.0', '0.0::0.0'], [(1, 0, 'bottom'), (2, 1, 'bottom'), (3, 2, 'bottom'), (4, 3, 'bottom')])"
p734
(dp735
g18
F-0.5
sg19
F-0.015625
sg37
F-0.5
sg21
F-0.5
sg22
F-0.75
sg29
F-0.5
sg32
F-0.5
sg34
F-0.5
sg40
F-0.5
sg35
F-0.5
sg14
F-0.5
sg41
F-0.25
sg24
F-0.5
sg42
F-0.5
sg17
F-0.75
ssS"(['-90.0::0.0', '0.0::90.0', '0.0::90.0', '0.0::-90.0', '-90.0::0.0'], [(0, 4, 'bottom'), (1, 0, 'bottom'), (2, 1, 'bottom'), (3, 2, 'bottom'), (4, 3, 'bottom')])"
p736
(dp737
g39
F-0.5
sg20
F-0.5
sg10
F-0.5
sg42
F-0.5
sg28
F-0.5
sg29
F-0.75
sg34
F-0.5
sg22
F-0.5
sg35
F-0.5
sg38
F-0.75
sg26
F-0.5
sg17
F-0.5
ssS"(['-90.0::0.0', '0.0::90.0', '0.0::90.0', '0.0::-90.0', '0.0::0.0'], [(0, 4, 'bottom'), (1, 0, 'bottom'), (2, 1, 'bottom'), (3, 2, 'bottom'), (4, 3, 'bottom')])"
p738
(dp739
g18
F0.5
sg43
F-0.5
ssS"(['-90.0::90.0', '0.0::90.0', '0.0::90.0', '0.0::90.0', '-90.0::0.0'], [(0, 4, 'bottom'), (1, 0, 'bottom'), (2, 1, 'bottom'), (3, 2, 'bottom'), (4, 3, 'bottom')])"
p740
(dp741
g18
F0.5
sg9
F-0.5
sg15
F-0.5
sg40
F-0.5
sg17
F-0.5
ssS"(['-90.0::0.0', '0.0::0.0', '0.0::0.0', '0.0::0.0', '-90.0::0.0'], [(0, 4, 'bottom'), (1, 0, 'bottom'), (2, 1, 'bottom'), (3, 2, 'bottom'), (4, 3, 'bottom')])"
p742
(dp743
g29
F-0.5
ssS"(['-90.0::0.0', '0.0::0.0', '-90.0::90.0', '0.0::90.0', '-90.0::0.0'], [(1, 0, 'bottom'), (2, 1, 'bottom'), (3, 2, 'bottom'), (4, 3, 'bottom')])"
p744
(dp745
g28
F0.5
ssS"(['0.0::-90.0', '0.0::90.0', '-90.0::90.0', '-90.0::-90.0', '-90.0::0.0'], [(1, 0, 'bottom'), (2, 1, 'bottom'), (3, 2, 'bottom'), (4, 3, 'bottom')])"
p746
(dp747
g29
F-0.5
ssS"(['-90.0::-90.0', '0.0::90.0', '0.0::90.0', '0.0::0.0', '0.0::90.0'], [(0, 4, 'bottom'), (1, 0, 'bottom'), (2, 1, 'bottom'), (3, 2, 'bottom'), (4, 3, 'bottom')])"
p748
(dp749
g15
F-0.5
sg25
F-0.5
sg13
F-0.5
sg37
F-0.5
sg33
F-0.5
ssS"(['-90.0::-90.0', '0.0::-90.0', '0.0::90.0', '90.0::90.0', '-90.0::0.0'], [(1, 0, 'bottom'), (2, 1, 'bottom'), (3, 2, 'bottom'), (4, 3, 'bottom')])"
p750
(dp751
g40
F-0.5
ssS"(['-90.0::-90.0', '0.0::0.0', '0.0::90.0', '90.0::90.0', '-90.0::0.0'], [(1, 0, 'bottom'), (2, 1, 'bottom'), (3, 2, 'bottom'), (4, 3, 'bottom')])"
p752
(dp753
g27
F-0.5
sg42
F-0.5
sg30
F-0.5
sg14
F-0.5
sg36
F-0.5
sg11
F-0.75
ssS"(['0.0::90.0', '0.0::90.0', '0.0::90.0', '0.0::90.0', '-90.0::0.0'], [(1, 0, 'bottom'), (2, 1, 'bottom'), (3, 2, 'bottom'), (4, 3, 'bottom')])"
p754
(dp755
g29
F-0.5
sg20
F-0.5
ssS"(['-90.0::0.0', '0.0::0.0', '-90.0::90.0', '0.0::0.0', '-90.0::0.0'], [(0, 4, 'bottom'), (1, 0, 'bottom'), (2, 1, 'bottom'), (3, 2, 'bottom'), (4, 3, 'bottom')])"
p756
(dp757
g26
F-0.75
sg40
F-0.5
ssS"(['0.0::-90.0', '90.0::90.0', '-90.0::90.0', '0.0::0.0', '-90.0::-90.0'], [(0, 4, 'bottom'), (1, 0, 'bottom'), (2, 1, 'bottom'), (3, 2, 'bottom'), (4, 3, 'bottom')])"
p758
(dp759
g15
F-0.5
sg28
F-0.5
sg13
F-0.5
ssS"(['-90.0::0.0', '0.0::90.0', '0.0::90.0', '-90.0::0.0', '0.0::0.0'], [(1, 0, 'bottom'), (2, 1, 'bottom'), (3, 2, 'bottom'), (4, 3, 'bottom')])"
p760
(dp761
g36
F-0.5
sg15
F-0.5
sg39
F-0.5
sg40
F-0.5
ssS"(['-90.0::-90.0', '-90.0::-90.0', '90.0::-90.0', '-90.0::-90.0', '-90.0::-90.0'], [(1, 0, 'bottom'), (2, 1, 'bottom'), (3, 2, 'bottom'), (4, 3, 'bottom')])"
p762
(dp763
g25
F0.5
ssS"(['0.0::0.0', '0.0::90.0', '0.0::90.0', '0.0::0.0', '-90.0::-90.0'], [(0, 4, 'bottom'), (1, 0, 'bottom'), (2, 1, 'bottom'), (3, 2, 'bottom'), (4, 3, 'bottom')])"
p764
(dp765
g27
F-0.5
sg35
F-0.5
sg40
F-0.5
sg21
F-0.5
ssS"(['-90.0::0.0', '0.0::90.0', '0.0::90.0', '0.0::0.0', '0.0::0.0'], [(0, 4, 'bottom'), (1, 0, 'bottom'), (2, 1, 'bottom'), (3, 2, 'bottom'), (4, 3, 'bottom')])"
p766
(dp767
g27
F-0.5
sg19
F-0.5
sg20
F-0.5
sg35
F-0.5
sg33
F-0.5
sg16
F-0.5
sg34
F-0.5
sg13
F-0.5
sg22
F-0.5
sg23
F-0.5
sg40
F-0.5
sg36
F-0.5
sg26
F-0.5
ssS"(['-90.0::0.0', '-90.0::90.0', '90.0::90.0', '-90.0::90.0', '-90.0::-90.0'], [(0, 4, 'bottom'), (1, 0, 'bottom'), (2, 1, 'bottom'), (3, 2, 'bottom'), (4, 3, 'bottom')])"
p768
(dp769
g11
F-0.5
sg41
F-0.5
sg34
F-0.5
ssS"(['-90.0::-90.0', '0.0::0.0', '-90.0::90.0', '-90.0::-90.0', '-90.0::0.0'], [(0, 4, 'bottom'), (1, 0, 'bottom'), (2, 1, 'bottom'), (3, 2, 'bottom'), (4, 3, 'bottom')])"
p770
(dp771
g36
F-0.75
sg39
F-0.5
sg16
F-0.5
ssS"(['-90.0::90.0', '0.0::0.0', '0.0::90.0', '0.0::0.0', '0.0::90.0'], [(1, 0, 'bottom'), (2, 1, 'bottom'), (3, 2, 'bottom'), (4, 3, 'bottom')])"
p772
(dp773
g31
F-0.5
ssS"(['-90.0::-90.0', '0.0::0.0', '90.0::90.0', '-90.0::0.0', '-90.0::0.0'], [(0, 4, 'bottom'), (1, 0, 'bottom'), (2, 1, 'bottom'), (3, 2, 'bottom'), (4, 3, 'bottom')])"
p774
(dp775
g36
F-0.5
sg18
F0.5
ssS"(['-90.0::0.0', '0.0::0.0', '0.0::90.0', '0.0::0.0', '90.0::0.0'], [(0, 4, 'bottom'), (1, 0, 'bottom'), (2, 1, 'bottom'), (3, 2, 'bottom'), (4, 3, 'bottom')])"
p776
(dp777
g24
F-0.5
ssS"(['-90.0::-90.0', '0.0::0.0', '0.0::90.0', '-90.0::0.0', '-90.0::0.0'], [(0, 4, 'bottom'), (1, 0, 'bottom'), (2, 1, 'bottom'), (3, 2, 'bottom'), (4, 3, 'bottom')])"
p778
(dp779
g11
F-0.5
sg23
F-0.5
sg40
F-0.5
ssS"(['-90.0::0.0', '0.0::90.0', '-90.0::0.0', '-90.0::0.0', '0.0::90.0'], [(1, 0, 'bottom'), (2, 1, 'bottom'), (3, 2, 'bottom'), (4, 3, 'bottom')])"
p780
(dp781
g34
F-0.5
ssS"(['-90.0::0.0', '-90.0::90.0', '0.0::90.0', '0.0::0.0', '-90.0::-90.0'], [(0, 4, 'bottom'), (1, 0, 'bottom'), (2, 1, 'bottom'), (3, 2, 'bottom'), (4, 3, 'bottom')])"
p782
(dp783
g36
F-0.5
sg22
F-0.5
sg31
F-0.5
sg37
F-0.75
sg35
F-0.5
ssS"(['0.0::0.0', '0.0::90.0', '90.0::0.0', '-90.0::0.0', '-90.0::0.0'], [(0, 4, 'bottom'), (1, 0, 'bottom'), (2, 1, 'bottom'), (3, 2, 'bottom'), (4, 3, 'bottom')])"
p784
(dp785
g42
F-0.5
sg38
F-0.5
ssS"(['-90.0::90.0', '0.0::90.0', '-90.0::90.0', '0.0::0.0', '-90.0::0.0'], [(0, 4, 'bottom'), (1, 0, 'bottom'), (2, 1, 'bottom'), (3, 2, 'bottom'), (4, 3, 'bottom')])"
p786
(dp787
g25
F-0.5
ssS"(['-90.0::-90.0', '0.0::0.0', '0.0::0.0', '-90.0::0.0', '90.0::0.0'], [(1, 0, 'bottom'), (2, 1, 'bottom'), (3, 2, 'bottom'), (4, 3, 'bottom')])"
p788
(dp789
g25
F-0.5
ssS"(['0.0::0.0', '90.0::0.0', '90.0::90.0', '-90.0::0.0', '0.0::0.0'], [(1, 0, 'bottom'), (2, 1, 'bottom'), (3, 2, 'bottom'), (4, 3, 'bottom')])"
p790
(dp791
g12
F-0.5
ssS"(['-90.0::0.0', '0.0::90.0', '90.0::90.0', '90.0::0.0', '-90.0::0.0'], [(0, 4, 'bottom'), (1, 0, 'bottom'), (2, 1, 'bottom'), (3, 2, 'bottom'), (4, 3, 'bottom')])"
p792
(dp793
g39
F-0.5
ssS"(['-90.0::0.0', '-90.0::90.0', '-90.0::0.0', '-90.0::0.0', '0.0::90.0'], [(1, 0, 'bottom'), (2, 1, 'bottom'), (3, 2, 'bottom'), (4, 3, 'bottom')])"
p794
(dp795
g15
F-0.5
sg16
F-0.5
ssS"(['-90.0::-90.0', '-90.0::90.0', '0.0::90.0', '0.0::-90.0', '-90.0::0.0'], [(0, 4, 'bottom'), (1, 0, 'bottom'), (2, 1, 'bottom'), (3, 2, 'bottom'), (4, 3, 'bottom')])"
p796
(dp797
g38
F-0.5
sg43
F-0.5
sg20
F-0.5
sg37
F-0.5
sg24
F-0.5
ssS"(['90.0::0.0', '0.0::0.0', '0.0::90.0', '-90.0::90.0', '0.0::0.0'], [(1, 0, 'bottom'), (2, 1, 'bottom'), (3, 2, 'bottom'), (4, 3, 'bottom')])"
p798
(dp799
g35
F-0.5
sg13
F-0.5
ssS"(['-90.0::-90.0', '0.0::0.0', '0.0::90.0', '0.0::0.0', '0.0::-90.0'], [(0, 4, 'bottom'), (1, 0, 'bottom'), (2, 1, 'bottom'), (3, 2, 'bottom'), (4, 3, 'bottom')])"
p800
(dp801
g27
F-0.5
ssS"(['-90.0::0.0', '0.0::0.0', '-90.0::0.0', '-90.0::0.0', '-90.0::0.0'], [(1, 0, 'bottom'), (2, 1, 'bottom'), (3, 2, 'bottom'), (4, 3, 'bottom')])"
p802
(dp803
g32
F-0.5
sg34
F-0.5
sg40
F-0.5
ssS"(['0.0::90.0', '-90.0::0.0', '0.0::90.0', '90.0::90.0', '0.0::0.0'], [(1, 0, 'bottom'), (2, 1, 'bottom'), (3, 2, 'bottom'), (4, 3, 'bottom')])"
p804
(dp805
g9
F-0.5
sg20
F-0.5
sg16
F0.5
sg14
F-0.5
sg25
F-0.5
sg17
F-0.5
ssS"(['-90.0::-90.0', '0.0::0.0', '90.0::0.0', '-90.0::-90.0', '-90.0::0.0'], [(1, 0, 'bottom'), (2, 1, 'bottom'), (3, 2, 'bottom'), (4, 3, 'bottom')])"
p806
(dp807
g14
F0.5
ssS"(['0.0::90.0', '90.0::90.0', '90.0::90.0', '0.0::0.0', '-90.0::90.0'], [(1, 0, 'bottom'), (2, 1, 'bottom'), (3, 2, 'bottom'), (4, 3, 'bottom')])"
p808
(dp809
g9
F-0.5
sg43
F-0.5
sg29
F-0.5
ssS"(['-90.0::-90.0', '0.0::0.0', '-90.0::90.0', '-90.0::0.0', '-90.0::0.0'], [(0, 4, 'bottom'), (1, 0, 'bottom'), (2, 1, 'bottom'), (3, 2, 'bottom'), (4, 3, 'bottom')])"
p810
(dp811
g11
F-0.5
sg16
F-0.5
ssS"(['0.0::0.0', '0.0::0.0', '0.0::0.0', '0.0::0.0', '-90.0::0.0'], [(1, 0, 'bottom'), (2, 1, 'bottom'), (3, 2, 'bottom'), (4, 3, 'bottom')])"
p812
(dp813
g19
F-0.5
sg37
F-0.015625
sg21
F0.9921875
sg31
F0.1875
sg32
F-0.03125
sg40
F-0.5
sg41
F-0.5
sg24
F-0.5
ssS"(['-90.0::-90.0', '0.0::-90.0', '-90.0::90.0', '0.0::90.0', '-90.0::90.0'], [(1, 0, 'bottom'), (2, 1, 'bottom'), (3, 2, 'bottom'), (4, 3, 'bottom')])"
p814
(dp815
g21
F0.5
ssS"(['-90.0::0.0', '0.0::-90.0', '0.0::0.0', '0.0::-90.0', '-90.0::0.0'], [(1, 0, 'bottom'), (2, 1, 'bottom'), (3, 2, 'bottom'), (4, 3, 'bottom')])"
p816
(dp817
g42
F-0.5
sg24
F-0.5
ssS"(['-90.0::0.0', '90.0::90.0', '0.0::90.0', '0.0::0.0', '-90.0::0.0'], [(0, 4, 'bottom'), (1, 0, 'bottom'), (2, 1, 'bottom'), (3, 2, 'bottom'), (4, 3, 'bottom')])"
p818
(dp819
g18
F3.2199784131717708
sg9
F-0.5
sg15
F0.46010100782876906
sg37
F-0.125
sg34
F-0.5
sg32
F0.71010100782876906
sg29
F-0.5
sg19
F0.71010100782876906
sg16
F-0.5
sg33
F0.71010100782876906
sg13
F-0.75
sg22
F-0.5
sg35
F0.421875
sg14
F-0.5
sg25
F-0.75
sg26
F-0.5
sg17
F-0.5
ssS"(['-90.0::0.0', '-90.0::90.0', '0.0::90.0', '-90.0::0.0', '-90.0::0.0'], [(1, 0, 'bottom'), (2, 1, 'bottom'), (3, 2, 'bottom'), (4, 3, 'bottom')])"
p820
(dp821
g9
F-0.5
sg39
F-0.5
ssS"(['0.0::0.0', '0.0::0.0', '90.0::-90.0', '-90.0::0.0', '0.0::90.0'], [(1, 0, 'bottom'), (2, 1, 'bottom'), (3, 2, 'bottom'), (4, 3, 'bottom')])"
p822
(dp823
g12
F-0.5
sg29
F-0.5
ssS"(['-90.0::0.0', '0.0::90.0', '-90.0::90.0', '0.0::0.0', '-90.0::0.0'], [(1, 0, 'bottom'), (2, 1, 'bottom'), (3, 2, 'bottom'), (4, 3, 'bottom')])"
p824
(dp825
g29
F-0.5
sg30
F-0.5
sg23
F1.45843505859375
sg34
F-0.5
sg17
F-0.5
ssS"(['-90.0::-90.0', '90.0::90.0', '0.0::90.0', '0.0::0.0', '-90.0::0.0'], [(1, 0, 'bottom'), (2, 1, 'bottom'), (3, 2, 'bottom'), (4, 3, 'bottom')])"
p826
(dp827
g25
F-0.5
sg41
F1.4858308580290576
sg10
F-0.5
ssS"(['0.0::90.0', '-90.0::90.0', '0.0::90.0', '0.0::90.0', '-90.0::0.0'], [(0, 4, 'bottom'), (1, 0, 'bottom'), (2, 1, 'bottom'), (3, 2, 'bottom'), (4, 3, 'bottom')])"
p828
(dp829
g30
F-0.5
sg43
F-0.5
sg41
F-0.5
ssS"(['-90.0::0.0', '-90.0::0.0', '90.0::0.0', '0.0::0.0', '0.0::0.0'], [(1, 0, 'bottom'), (2, 1, 'bottom'), (3, 2, 'bottom'), (4, 3, 'bottom')])"
p830
(dp831
g10
F0.5
ssS"(['0.0::0.0', '90.0::90.0', '0.0::90.0', '0.0::0.0', '-90.0::90.0'], [(0, 4, 'bottom'), (1, 0, 'bottom'), (2, 1, 'bottom'), (3, 2, 'bottom'), (4, 3, 'bottom')])"
p832
(dp833
g37
F-0.5
sg21
F-0.5
ssS"(['-90.0::0.0', '-90.0::90.0', '0.0::90.0', '0.0::0.0', '0.0::90.0'], [(0, 4, 'bottom'), (1, 0, 'bottom'), (2, 1, 'bottom'), (3, 2, 'bottom'), (4, 3, 'bottom')])"
p834
(dp835
g16
F-0.5
ssS"(['-90.0::-90.0', '0.0::90.0', '0.0::-90.0', '0.0::90.0', '-90.0::0.0'], [(1, 0, 'bottom'), (2, 1, 'bottom'), (3, 2, 'bottom'), (4, 3, 'bottom')])"
p836
(dp837
g30
F-0.5
ssS"(['0.0::0.0', '0.0::-90.0', '0.0::90.0', '0.0::0.0', '0.0::0.0'], [(1, 0, 'bottom'), (2, 1, 'bottom'), (3, 2, 'bottom'), (4, 3, 'bottom')])"
p838
(dp839
g10
F-0.5
ssS"(['-90.0::0.0', '90.0::0.0', '0.0::90.0', '0.0::0.0', '-90.0::0.0'], [(0, 4, 'bottom'), (1, 0, 'bottom'), (2, 1, 'bottom'), (3, 2, 'bottom'), (4, 3, 'bottom')])"
p840
(dp841
g16
F-0.5
ssS"(['-90.0::0.0', '0.0::90.0', '-90.0::90.0', '0.0::-90.0', '-90.0::0.0'], [(0, 4, 'bottom'), (1, 0, 'bottom'), (2, 1, 'bottom'), (3, 2, 'bottom'), (4, 3, 'bottom')])"
p842
(dp843
g24
F-0.5
ssS"(['-90.0::0.0', '0.0::90.0', '0.0::0.0', '0.0::-90.0', '-90.0::0.0'], [(0, 4, 'bottom'), (1, 0, 'bottom'), (2, 1, 'bottom'), (3, 2, 'bottom'), (4, 3, 'bottom')])"
p844
(dp845
g39
F-0.5
ssS"(['-90.0::0.0', '-90.0::90.0', '-90.0::90.0', '90.0::0.0', '-90.0::0.0'], [(0, 4, 'bottom'), (1, 0, 'bottom'), (2, 1, 'bottom'), (3, 2, 'bottom'), (4, 3, 'bottom')])"
p846
(dp847
g9
F-0.75
sg14
F-0.5
sg10
F-0.5
sg12
F-0.5
sg34
F-0.5
sg35
F-0.5
sg42
F-0.5
ssS"(['-90.0::0.0', '0.0::0.0', '0.0::0.0', '0.0::-90.0', '-90.0::0.0'], [(1, 0, 'bottom'), (2, 1, 'bottom'), (3, 2, 'bottom'), (4, 3, 'bottom')])"
p848
(dp849
g28
F-0.5
ssS"(['-90.0::90.0', '0.0::90.0', '0.0::0.0', '0.0::90.0', '-90.0::0.0'], [(0, 4, 'bottom'), (1, 0, 'bottom'), (2, 1, 'bottom'), (3, 2, 'bottom'), (4, 3, 'bottom')])"
p850
(dp851
g35
F-0.5
sg33
F-0.5
sg34
F-0.5
sg17
F-0.5
ssS"(['-90.0::0.0', '-90.0::0.0', '0.0::0.0', '0.0::0.0', '-90.0::0.0'], [(1, 0, 'bottom'), (2, 1, 'bottom'), (3, 2, 'bottom'), (4, 3, 'bottom')])"
p852
(dp853
g14
F-0.5
sg23
F-0.5
sg20
F-0.5
ssS"(['-90.0::0.0', '0.0::0.0', '90.0::0.0', '0.0::0.0', '-90.0::0.0'], [(1, 0, 'bottom'), (2, 1, 'bottom'), (3, 2, 'bottom'), (4, 3, 'bottom')])"
p854
(dp855
g9
F-0.5
sg15
F-0.5
sg21
F0.75
sg37
F-0.5
sg12
F-0.75
sg19
F-0.5
sg23
F-0.5
sg17
F-0.5
ssS"(['-90.0::0.0', '0.0::0.0', '0.0::90.0', '0.0::0.0', '-90.0::0.0'], [(1, 0, 'bottom'), (2, 1, 'bottom'), (3, 2, 'bottom'), (4, 3, 'bottom')])"
p856
(dp857
g9
F0.35937118530273438
sg10
F-0.5
sg11
F0.1170654296875
sg12
F0.24742984748445451
sg13
F-0.5
sg38
F-0.0009765625
sg40
F-0.5
sg17
F-0.5
sg18
F0.49681281996890903
sg19
F1.6693777789299247
sg20
F0.7312314435839653
sg21
F0.875
sg22
F-0.75
sg25
F-0.28125
sg24
F-0.75
sg23
F-0.5
sg26
F1.25
sg27
F-0.75
sg15
F1.3207980951991658
sg29
F-0.75
sg30
F-0.75
sg31
F-0.875
sg32
F0.4853513240814209
sg33
F0.64708706736564636
sg34
F-0.96875
sg35
F-0.5
sg36
F0.8488568738084723
sg28
F2.9181658593005295
sg37
F-0.251953125
sg14
F-0.75
sg39
F-0.25
sg16
F-0.5
sg41
F0.203125
sg43
F0.85042953374795616
ssS"(['0.0::-90.0', '90.0::90.0', '-90.0::90.0', '0.0::0.0', '0.0::0.0'], [(0, 4, 'bottom'), (1, 0, 'bottom'), (2, 1, 'bottom'), (3, 2, 'bottom'), (4, 3, 'bottom')])"
p858
(dp859
g12
F-0.5
ssS"(['-90.0::0.0', '0.0::-90.0', '0.0::90.0', '0.0::0.0', '-90.0::0.0'], [(1, 0, 'bottom'), (2, 1, 'bottom'), (3, 2, 'bottom'), (4, 3, 'bottom')])"
p860
(dp861
g30
F-0.5
sg25
F-0.5
sg37
F-0.5
ssS"(['-90.0::0.0', '0.0::90.0', '0.0::90.0', '0.0::-90.0', '-90.0::-90.0'], [(0, 4, 'bottom'), (1, 0, 'bottom'), (2, 1, 'bottom'), (3, 2, 'bottom'), (4, 3, 'bottom')])"
p862
(dp863
g14
F-0.5
sg41
F-0.5
ssS"(['-90.0::-90.0', '0.0::-90.0', '0.0::0.0', '90.0::0.0', '0.0::0.0'], [(1, 0, 'bottom'), (2, 1, 'bottom'), (3, 2, 'bottom'), (4, 3, 'bottom')])"
p864
(dp865
g30
F-0.5
ssS"(['-90.0::-90.0', '0.0::0.0', '0.0::0.0', '0.0::0.0', '-90.0::0.0'], [(1, 0, 'bottom'), (2, 1, 'bottom'), (3, 2, 'bottom'), (4, 3, 'bottom')])"
p866
(dp867
g43
F-0.5
sg16
F-0.5
ssS"(['-90.0::0.0', '0.0::90.0', '90.0::90.0', '90.0::90.0', '-90.0::0.0'], [(1, 0, 'bottom'), (2, 1, 'bottom'), (3, 2, 'bottom'), (4, 3, 'bottom')])"
p868
(dp869
g16
F1.6314721009111963
ssS"(['-90.0::0.0', '0.0::90.0', '0.0::90.0', '-90.0::0.0', '-90.0::-90.0'], [(0, 4, 'bottom'), (1, 0, 'bottom'), (2, 1, 'bottom'), (3, 2, 'bottom'), (4, 3, 'bottom')])"
p870
(dp871
g39
F-0.5
ssS"(['0.0::90.0', '0.0::0.0', '0.0::90.0', '0.0::90.0', '0.0::0.0'], [(1, 0, 'bottom'), (2, 1, 'bottom'), (3, 2, 'bottom'), (4, 3, 'bottom')])"
p872
(dp873
g41
F-0.5
ssS"(['-90.0::0.0', '0.0::0.0', '-90.0::-90.0', '-90.0::0.0', '-90.0::-90.0'], [(1, 0, 'bottom'), (2, 1, 'bottom'), (3, 2, 'bottom'), (4, 3, 'bottom')])"
p874
(dp875
g25
F-0.5
ssS"(['-90.0::-90.0', '0.0::-90.0', '0.0::-90.0', '0.0::0.0', '-90.0::0.0'], [(1, 0, 'bottom'), (2, 1, 'bottom'), (3, 2, 'bottom'), (4, 3, 'bottom')])"
p876
(dp877
g36
F-0.5
sg38
F0.5
ssS"(['-90.0::0.0', '90.0::90.0', '0.0::0.0', '0.0::0.0', '0.0::0.0'], [(1, 0, 'bottom'), (2, 1, 'bottom'), (3, 2, 'bottom'), (4, 3, 'bottom')])"
p878
(dp879
g24
F-0.5
ssS"(['-90.0::0.0', '-90.0::90.0', '0.0::90.0', '-90.0::0.0', '-90.0::90.0'], [(1, 0, 'bottom'), (2, 1, 'bottom'), (3, 2, 'bottom'), (4, 3, 'bottom')])"
p880
(dp881
g31
F-0.5
sg40
F-0.5
ssS"(['90.0::0.0', '90.0::0.0', '-90.0::90.0', '0.0::0.0', '0.0::0.0'], [(1, 0, 'bottom'), (2, 1, 'bottom'), (3, 2, 'bottom'), (4, 3, 'bottom')])"
p882
(dp883
g23
F0.5
ssS"(['-90.0::-90.0', '0.0::0.0', '90.0::90.0', '0.0::-90.0', '-90.0::90.0'], [(0, 4, 'bottom'), (1, 0, 'bottom'), (2, 1, 'bottom'), (3, 2, 'bottom'), (4, 3, 'bottom')])"
p884
(dp885
g35
F-0.5
sg9
F-0.5
sg13
F-0.5
sg21
F-0.5
ssS"(['-90.0::90.0', '0.0::0.0', '0.0::0.0', '-90.0::-90.0', '-90.0::0.0'], [(1, 0, 'bottom'), (2, 1, 'bottom'), (3, 2, 'bottom'), (4, 3, 'bottom')])"
p886
(dp887
g9
F-0.5
sg41
F-0.5
ssS"(['0.0::0.0', '0.0::90.0', '0.0::90.0', '-90.0::90.0', '-90.0::0.0'], [(1, 0, 'bottom'), (2, 1, 'bottom'), (3, 2, 'bottom'), (4, 3, 'bottom')])"
p888
(dp889
g25
F-0.5
ssS"(['-90.0::0.0', '0.0::90.0', '-90.0::90.0', '90.0::90.0', '-90.0::0.0'], [(0, 4, 'bottom'), (1, 0, 'bottom'), (2, 1, 'bottom'), (3, 2, 'bottom'), (4, 3, 'bottom')])"
p890
(dp891
g42
F-0.5
sg15
F-0.5
sg24
F-0.5
ssS"(['0.0::0.0', '-90.0::-90.0', '0.0::90.0', '0.0::-90.0', '-90.0::90.0'], [(1, 0, 'bottom'), (2, 1, 'bottom'), (3, 2, 'bottom'), (4, 3, 'bottom')])"
p892
(dp893
g34
F-0.5
ssS"(['-90.0::90.0', '-90.0::90.0', '0.0::0.0', '90.0::90.0', '-90.0::-90.0'], [(0, 4, 'bottom'), (1, 0, 'bottom'), (2, 1, 'bottom'), (3, 2, 'bottom'), (4, 3, 'bottom')])"
p894
(dp895
g23
F-0.5
ssS"(['-90.0::0.0', '0.0::0.0', '-90.0::0.0', '0.0::90.0', '-90.0::0.0'], [(1, 0, 'bottom'), (2, 1, 'bottom'), (3, 2, 'bottom'), (4, 3, 'bottom')])"
p896
(dp897
g24
F-0.5
ssS"(['-90.0::0.0', '0.0::90.0', '0.0::90.0', '-90.0::90.0', '-90.0::0.0'], [(1, 0, 'bottom'), (2, 1, 'bottom'), (3, 2, 'bottom'), (4, 3, 'bottom')])"
p898
(dp899
g38
F-0.5
sg22
F-0.5
ssS"(['-90.0::0.0', '0.0::-90.0', '0.0::90.0', '0.0::0.0', '0.0::0.0'], [(1, 0, 'bottom'), (2, 1, 'bottom'), (3, 2, 'bottom'), (4, 3, 'bottom')])"
p900
(dp901
g26
F0.5
ssS"(['-90.0::90.0', '0.0::0.0', '0.0::90.0', '-90.0::-90.0', '-90.0::0.0'], [(1, 0, 'bottom'), (2, 1, 'bottom'), (3, 2, 'bottom'), (4, 3, 'bottom')])"
p902
(dp903
g11
F-0.5
sg39
F-0.5
ssS"(['0.0::0.0', '90.0::0.0', '0.0::90.0', '0.0::0.0', '-90.0::0.0'], [(1, 0, 'bottom'), (2, 1, 'bottom'), (3, 2, 'bottom'), (4, 3, 'bottom')])"
p904
(dp905
g34
F-0.5
ssS"(['0.0::0.0', '0.0::0.0', '-90.0::0.0', '0.0::0.0', '-90.0::0.0'], [(1, 0, 'bottom'), (2, 1, 'bottom'), (3, 2, 'bottom'), (4, 3, 'bottom')])"
p906
(dp907
g30
F-0.5
sg34
F-0.5
ssS"(['-90.0::0.0', '-90.0::90.0', '0.0::0.0', '0.0::0.0', '-90.0::-90.0'], [(0, 4, 'bottom'), (1, 0, 'bottom'), (2, 1, 'bottom'), (3, 2, 'bottom'), (4, 3, 'bottom')])"
p908
(dp909
g30
F-0.5
sg15
F-0.5
ssS"(['-90.0::90.0', '-90.0::90.0', '-90.0::90.0', '0.0::-90.0', '-90.0::0.0'], [(1, 0, 'bottom'), (2, 1, 'bottom'), (3, 2, 'bottom'), (4, 3, 'bottom')])"
p910
(dp911
g11
F-0.5
sg39
F-0.5
sg40
F-0.5
ssS"(['0.0::90.0', '0.0::0.0', '-90.0::0.0', '0.0::0.0', '0.0::0.0'], [(1, 0, 'bottom'), (2, 1, 'bottom'), (3, 2, 'bottom'), (4, 3, 'bottom')])"
p912
(dp913
g26
F-0.5
ssS"(['-90.0::90.0', '0.0::0.0', '90.0::90.0', '0.0::0.0', '0.0::0.0'], [(1, 0, 'bottom'), (2, 1, 'bottom'), (3, 2, 'bottom'), (4, 3, 'bottom')])"
p914
(dp915
g11
F-0.5
sg34
F-0.5
sg10
F-0.5
ssS"(['-90.0::0.0', '0.0::0.0', '0.0::0.0', '90.0::90.0', '0.0::0.0'], [(1, 0, 'bottom'), (2, 1, 'bottom'), (3, 2, 'bottom'), (4, 3, 'bottom')])"
p916
(dp917
g33
F-0.5
sg34
F-0.5
ssS"(['-90.0::0.0', '0.0::0.0', '90.0::90.0', '90.0::90.0', '-90.0::0.0'], [(1, 0, 'bottom'), (2, 1, 'bottom'), (3, 2, 'bottom'), (4, 3, 'bottom')])"
p918
(dp919
g19
F-0.5
ssS"(['-90.0::0.0', '90.0::90.0', '0.0::90.0', '0.0::90.0', '0.0::90.0'], [(0, 4, 'bottom'), (1, 0, 'bottom'), (2, 1, 'bottom'), (3, 2, 'bottom'), (4, 3, 'bottom')])"
p920
(dp921
g42
F-0.5
sg36
F-0.5
sg9
F-0.5
sg23
F-0.5
sg25
F-0.5
ssS"(['-90.0::0.0', '90.0::90.0', '0.0::90.0', '-90.0::0.0', '-90.0::90.0'], [(0, 4, 'bottom'), (1, 0, 'bottom'), (2, 1, 'bottom'), (3, 2, 'bottom'), (4, 3, 'bottom')])"
p922
(dp923
g13
F-0.5
ssS"(['-90.0::0.0', '-90.0::0.0', '0.0::90.0', '0.0::-90.0', '-90.0::-90.0'], [(0, 4, 'bottom'), (1, 0, 'bottom'), (2, 1, 'bottom'), (3, 2, 'bottom'), (4, 3, 'bottom')])"
p924
(dp925
g42
F-0.5
sg38
F-0.5
sg21
F-0.5
ssS"(['-90.0::0.0', '90.0::90.0', '0.0::90.0', '0.0::0.0', '0.0::-90.0'], [(1, 0, 'bottom'), (2, 1, 'bottom'), (3, 2, 'bottom'), (4, 3, 'bottom')])"
p926
(dp927
g22
F-0.5
sg20
F-0.5
sg13
F-0.5
ssS"(['0.0::-90.0', '90.0::90.0', '0.0::90.0', '0.0::0.0', '0.0::0.0'], [(0, 4, 'bottom'), (1, 0, 'bottom'), (2, 1, 'bottom'), (3, 2, 'bottom'), (4, 3, 'bottom')])"
p928
(dp929
g40
F-0.5
ssS"(['-90.0::-90.0', '0.0::0.0', '90.0::90.0', '90.0::-90.0', '0.0::90.0'], [(0, 4, 'bottom'), (1, 0, 'bottom'), (2, 1, 'bottom'), (3, 2, 'bottom'), (4, 3, 'bottom')])"
p930
(dp931
g22
F-0.5
ssS"(['0.0::-90.0', '-90.0::90.0', '90.0::-90.0', '0.0::0.0', '0.0::-90.0'], [(1, 0, 'bottom'), (2, 1, 'bottom'), (3, 2, 'bottom'), (4, 3, 'bottom')])"
p932
(dp933
g11
F-0.5
sg28
F-0.5
sg12
F-0.5
ssS"(['-90.0::0.0', '-90.0::-90.0', '0.0::90.0', '0.0::-90.0', '0.0::-90.0'], [(1, 0, 'bottom'), (2, 1, 'bottom'), (3, 2, 'bottom'), (4, 3, 'bottom')])"
p934
(dp935
g11
F-0.5
sg21
F-0.5
ssS"(['-90.0::0.0', '0.0::90.0', '-90.0::0.0', '90.0::-90.0', '-90.0::0.0'], [(1, 0, 'bottom'), (2, 1, 'bottom'), (3, 2, 'bottom'), (4, 3, 'bottom')])"
p936
(dp937
g31
F0.5
ssS"(['0.0::-90.0', '90.0::90.0', '-90.0::90.0', '0.0::0.0', '-90.0::0.0'], [(0, 4, 'bottom'), (1, 0, 'bottom'), (2, 1, 'bottom'), (3, 2, 'bottom'), (4, 3, 'bottom')])"
p938
(dp939
g22
F-0.5
sg9
F-0.5
sg15
F-0.5
sg33
F-0.5
ssS"(['-90.0::90.0', '0.0::90.0', '-90.0::90.0', '-90.0::-90.0', '-90.0::0.0'], [(1, 0, 'bottom'), (2, 1, 'bottom'), (3, 2, 'bottom'), (4, 3, 'bottom')])"
p940
(dp941
g36
F-0.5
sg11
F-0.5
sg28
F0.75
sg31
F-0.5
ssS"(['-90.0::90.0', '0.0::90.0', '-90.0::90.0', '0.0::0.0', '90.0::0.0'], [(1, 0, 'bottom'), (2, 1, 'bottom'), (3, 2, 'bottom'), (4, 3, 'bottom')])"
p942
(dp943
g25
F-0.5
ssS"(['-90.0::0.0', '0.0::90.0', '90.0::-90.0', '0.0::0.0', '0.0::0.0'], [(1, 0, 'bottom'), (2, 1, 'bottom'), (3, 2, 'bottom'), (4, 3, 'bottom')])"
p944
(dp945
g42
F-0.5
sg41
F-0.5
ssS"(['0.0::0.0', '0.0::90.0', '0.0::90.0', '-90.0::0.0', '-90.0::0.0'], [(1, 0, 'bottom'), (2, 1, 'bottom'), (3, 2, 'bottom'), (4, 3, 'bottom')])"
p946
(dp947
g22
F-0.5
sg25
F-0.5
ssS"(['0.0::90.0', '0.0::90.0', '-90.0::90.0', '0.0::0.0', '-90.0::0.0'], [(1, 0, 'bottom'), (2, 1, 'bottom'), (3, 2, 'bottom'), (4, 3, 'bottom')])"
p948
(dp949
g11
F-0.5
sg21
F0.5
ssS"(['90.0::0.0', '0.0::90.0', '0.0::90.0', '-90.0::0.0', '-90.0::0.0'], [(1, 0, 'bottom'), (2, 1, 'bottom'), (3, 2, 'bottom'), (4, 3, 'bottom')])"
p950
(dp951
g18
F-0.5
sg19
F-0.5
sg15
F-0.75
sg37
F-0.5
sg13
F-0.5
sg42
F-0.5
sg17
F-0.5
ssS"(['-90.0::0.0', '0.0::90.0', '90.0::90.0', '0.0::0.0', '-90.0::0.0'], [(0, 4, 'bottom'), (1, 0, 'bottom'), (2, 1, 'bottom'), (3, 2, 'bottom'), (4, 3, 'bottom')])"
p952
(dp953
g27
F-0.5
sg18
F1.671875
sg9
F-0.5
sg21
F-0.5
sg37
F0.3359375
sg35
F0.0859375
sg30
F-0.5
sg28
F-0.75
sg29
F-0.75
sg14
F-0.5
sg36
F0.484375
ssS"(['-90.0::90.0', '0.0::90.0', '-90.0::90.0', '-90.0::-90.0', '-90.0::0.0'], [(0, 4, 'bottom'), (1, 0, 'bottom'), (2, 1, 'bottom'), (3, 2, 'bottom'), (4, 3, 'bottom')])"
p954
(dp955
g36
F-0.5
sg18
F0.5
sg20
F-0.5
ssS"(['-90.0::0.0', '-90.0::90.0', '0.0::90.0', '0.0::90.0', '-90.0::0.0'], [(0, 4, 'bottom'), (1, 0, 'bottom'), (2, 1, 'bottom'), (3, 2, 'bottom'), (4, 3, 'bottom')])"
p956
(dp957
g12
F-0.5
sg17
F-0.5
sg32
F-0.5
sg16
F-0.5
sg20
F-0.5
ssS"(['-90.0::0.0', '0.0::0.0', '-90.0::-90.0', '-90.0::90.0', '-90.0::-90.0'], [(1, 0, 'bottom'), (2, 1, 'bottom'), (3, 2, 'bottom'), (4, 3, 'bottom')])"
p958
(dp959
g27
F-0.5
ssS"(['-90.0::0.0', '90.0::0.0', '-90.0::90.0', '-90.0::0.0', '-90.0::0.0'], [(0, 4, 'bottom'), (1, 0, 'bottom'), (2, 1, 'bottom'), (3, 2, 'bottom'), (4, 3, 'bottom')])"
p960
(dp961
g38
F-0.5
sg30
F-0.5
sg12
F-0.5
ssS"(['-90.0::0.0', '0.0::90.0', '0.0::90.0', '0.0::0.0', '-90.0::-90.0'], [(1, 0, 'bottom'), (2, 1, 'bottom'), (3, 2, 'bottom'), (4, 3, 'bottom')])"
p962
(dp963
g32
F-0.25
sg21
F0.75
ssS"(['-90.0::-90.0', '90.0::-90.0', '0.0::90.0', '0.0::0.0', '0.0::-90.0'], [(0, 4, 'bottom'), (1, 0, 'bottom'), (2, 1, 'bottom'), (3, 2, 'bottom'), (4, 3, 'bottom')])"
p964
(dp965
g23
F-0.5
ssS"(['-90.0::-90.0', '0.0::0.0', '0.0::90.0', '0.0::0.0', '-90.0::0.0'], [(0, 4, 'bottom'), (1, 0, 'bottom'), (2, 1, 'bottom'), (3, 2, 'bottom'), (4, 3, 'bottom')])"
p966
(dp967
g29
F-0.5
ssS"(['-90.0::-90.0', '0.0::90.0', '0.0::90.0', '0.0::0.0', '-90.0::0.0'], [(1, 0, 'bottom'), (2, 1, 'bottom'), (3, 2, 'bottom'), (4, 3, 'bottom')])"
p968
(dp969
g20
F0.48583085802905757
sg21
F0.75
sg22
F-0.5
sg33
F0.48583085802905757
sg14
F-0.5
sg25
F1.2679880918322186
sg17
F3.0313797364788471
ssS"(['-90.0::0.0', '0.0::90.0', '0.0::0.0', '0.0::-90.0', '0.0::0.0'], [(1, 0, 'bottom'), (2, 1, 'bottom'), (3, 2, 'bottom'), (4, 3, 'bottom')])"
p970
(dp971
g31
F-0.5
ssS"(['-90.0::-90.0', '0.0::0.0', '0.0::90.0', '0.0::90.0', '-90.0::0.0'], [(1, 0, 'bottom'), (2, 1, 'bottom'), (3, 2, 'bottom'), (4, 3, 'bottom')])"
p972
(dp973
g14
F-0.5
sg43
F-0.5
ssS"(['-90.0::0.0', '0.0::-90.0', '-90.0::-90.0', '-90.0::90.0', '-90.0::-90.0'], [(1, 0, 'bottom'), (2, 1, 'bottom'), (3, 2, 'bottom'), (4, 3, 'bottom')])"
p974
(dp975
g42
F-0.5
sg14
F0.5
sg28
F-0.5
ssS"(['-90.0::90.0', '0.0::90.0', '-90.0::90.0', '90.0::90.0', '-90.0::0.0'], [(0, 4, 'bottom'), (1, 0, 'bottom'), (2, 1, 'bottom'), (3, 2, 'bottom'), (4, 3, 'bottom')])"
p976
(dp977
g23
F-0.5
ssS"(['-90.0::0.0', '0.0::0.0', '90.0::90.0', '90.0::0.0', '-90.0::0.0'], [(0, 4, 'bottom'), (1, 0, 'bottom'), (2, 1, 'bottom'), (3, 2, 'bottom'), (4, 3, 'bottom')])"
p978
(dp979
g38
F-0.5
sg18
F0.5
ssS"(['-90.0::0.0', '0.0::0.0', '0.0::-90.0', '0.0::0.0', '-90.0::0.0'], [(1, 0, 'bottom'), (2, 1, 'bottom'), (3, 2, 'bottom'), (4, 3, 'bottom')])"
p980
(dp981
g27
F-0.5
sg9
F-0.5
sg28
F-0.5
ssS"(['-90.0::0.0', '0.0::90.0', '0.0::90.0', '90.0::0.0', '-90.0::90.0'], [(0, 4, 'bottom'), (1, 0, 'bottom'), (2, 1, 'bottom'), (3, 2, 'bottom'), (4, 3, 'bottom')])"
p982
(dp983
g24
F-0.5
ssS"(['-90.0::0.0', '-90.0::90.0', '0.0::90.0', '90.0::0.0', '-90.0::0.0'], [(0, 4, 'bottom'), (1, 0, 'bottom'), (2, 1, 'bottom'), (3, 2, 'bottom'), (4, 3, 'bottom')])"
p984
(dp985
g29
F-0.5
sg37
F-0.5
sg40
F-0.5
ssS"(['-90.0::0.0', '-90.0::90.0', '0.0::90.0', '-90.0::0.0', '-90.0::90.0'], [(0, 4, 'bottom'), (1, 0, 'bottom'), (2, 1, 'bottom'), (3, 2, 'bottom'), (4, 3, 'bottom')])"
p986
(dp987
g19
F-0.5
sg31
F-0.5
sg33
F-0.5
sg16
F-0.5
ssS"(['-90.0::0.0', '-90.0::90.0', '0.0::0.0', '0.0::0.0', '-90.0::0.0'], [(1, 0, 'bottom'), (2, 1, 'bottom'), (3, 2, 'bottom'), (4, 3, 'bottom')])"
p988
(dp989
g35
F-0.5
sg11
F-0.5
sg34
F-0.5
sg21
F0.5
sg13
F-0.5
ssS"(['-90.0::0.0', '0.0::0.0', '0.0::90.0', '-90.0::0.0', '0.0::0.0'], [(0, 4, 'bottom'), (1, 0, 'bottom'), (2, 1, 'bottom'), (3, 2, 'bottom'), (4, 3, 'bottom')])"
p990
(dp991
g23
F-0.5
sg12
F-0.5
sg20
F-0.5
ssS"(['-90.0::90.0', '0.0::90.0', '0.0::90.0', '0.0::0.0', '-90.0::90.0'], [(1, 0, 'bottom'), (2, 1, 'bottom'), (3, 2, 'bottom'), (4, 3, 'bottom')])"
p992
(dp993
g30
F-0.5
ssS"(['-90.0::0.0', '-90.0::-90.0', '90.0::-90.0', '-90.0::-90.0', '-90.0::-90.0'], [(1, 0, 'bottom'), (2, 1, 'bottom'), (3, 2, 'bottom'), (4, 3, 'bottom')])"
p994
(dp995
g40
F0.5
ssS"(['-90.0::0.0', '0.0::0.0', '0.0::90.0', '90.0::0.0', '-90.0::-90.0'], [(0, 4, 'bottom'), (1, 0, 'bottom'), (2, 1, 'bottom'), (3, 2, 'bottom'), (4, 3, 'bottom')])"
p996
(dp997
g27
F-0.5
ssS"(['-90.0::-90.0', '0.0::90.0', '0.0::0.0', '0.0::90.0', '-90.0::0.0'], [(1, 0, 'bottom'), (2, 1, 'bottom'), (3, 2, 'bottom'), (4, 3, 'bottom')])"
p998
(dp999
g28
F-0.5
ssS"(['0.0::0.0', '90.0::90.0', '0.0::90.0', '0.0::0.0', '0.0::90.0'], [(0, 4, 'bottom'), (1, 0, 'bottom'), (2, 1, 'bottom'), (3, 2, 'bottom'), (4, 3, 'bottom')])"
p1000
(dp1001
g22
F-0.5
ssS"(['-90.0::0.0', '-90.0::90.0', '0.0::90.0', '-90.0::-90.0', '0.0::90.0'], [(1, 0, 'bottom'), (2, 1, 'bottom'), (3, 2, 'bottom'), (4, 3, 'bottom')])"
p1002
(dp1003
g22
F0.5
sg16
F-0.5
sg37
F-0.5
ssS"(['-90.0::-90.0', '0.0::90.0', '0.0::90.0', '0.0::0.0', '0.0::0.0'], [(1, 0, 'bottom'), (2, 1, 'bottom'), (3, 2, 'bottom'), (4, 3, 'bottom')])"
p1004
(dp1005
g29
F-0.5
sg25
F-0.5
ssS"(['-90.0::0.0', '0.0::90.0', '90.0::90.0', '0.0::0.0', '0.0::0.0'], [(0, 4, 'bottom'), (1, 0, 'bottom'), (2, 1, 'bottom'), (3, 2, 'bottom'), (4, 3, 'bottom')])"
p1006
(dp1007
g22
F-0.5
sg19
F-0.5
sg40
F-0.5
ssS"(['-90.0::0.0', '90.0::90.0', '0.0::90.0', '0.0::-90.0', '-90.0::-90.0'], [(0, 4, 'bottom'), (1, 0, 'bottom'), (2, 1, 'bottom'), (3, 2, 'bottom'), (4, 3, 'bottom')])"
p1008
(dp1009
g26
F-0.5
ssS"(['-90.0::0.0', '90.0::-90.0', '0.0::90.0', '90.0::0.0', '-90.0::-90.0'], [(1, 0, 'bottom'), (2, 1, 'bottom'), (3, 2, 'bottom'), (4, 3, 'bottom')])"
p1010
(dp1011
g25
F-0.5
ssS"(['0.0::90.0', '-90.0::-90.0', '0.0::90.0', '0.0::-90.0', '-90.0::90.0'], [(1, 0, 'bottom'), (2, 1, 'bottom'), (3, 2, 'bottom'), (4, 3, 'bottom')])"
p1012
(dp1013
g13
F0.5
ssS"(['-90.0::0.0', '90.0::90.0', '0.0::90.0', '0.0::90.0', '0.0::0.0'], [(0, 4, 'bottom'), (1, 0, 'bottom'), (2, 1, 'bottom'), (3, 2, 'bottom'), (4, 3, 'bottom')])"
p1014
(dp1015
g39
F-0.5
ssS"(['-90.0::90.0', '0.0::90.0', '0.0::0.0', '-90.0::0.0', '-90.0::90.0'], [(1, 0, 'bottom'), (2, 1, 'bottom'), (3, 2, 'bottom'), (4, 3, 'bottom')])"
p1016
(dp1017
g40
F-0.5
ssS"(['-90.0::0.0', '0.0::90.0', '0.0::0.0', '-90.0::0.0', '0.0::90.0'], [(1, 0, 'bottom'), (2, 1, 'bottom'), (3, 2, 'bottom'), (4, 3, 'bottom')])"
p1018
(dp1019
g9
F-0.5
sg21
F-0.5
sg37
F-0.5
sg31
F-0.5
sg40
F-0.5
sg41
F-0.5
ssS"(['0.0::0.0', '0.0::90.0', '0.0::90.0', '-90.0::0.0', '90.0::0.0'], [(0, 4, 'bottom'), (1, 0, 'bottom'), (2, 1, 'bottom'), (3, 2, 'bottom'), (4, 3, 'bottom')])"
p1020
(dp1021
g27
F-0.5
sg15
F-0.5
ssS"(['0.0::0.0', '0.0::90.0', '0.0::0.0', '0.0::0.0', '-90.0::90.0'], [(0, 4, 'bottom'), (1, 0, 'bottom'), (2, 1, 'bottom'), (3, 2, 'bottom'), (4, 3, 'bottom')])"
p1022
(dp1023
g11
F-0.5
sg29
F-0.5
sg33
F-0.5
ssS"(['0.0::90.0', '0.0::0.0', '0.0::90.0', '0.0::90.0', '-90.0::0.0'], [(1, 0, 'bottom'), (2, 1, 'bottom'), (3, 2, 'bottom'), (4, 3, 'bottom')])"
p1024
(dp1025
g21
F0.5
ssS"(['-90.0::90.0', '0.0::0.0', '90.0::0.0', '0.0::0.0', '-90.0::0.0'], [(1, 0, 'bottom'), (2, 1, 'bottom'), (3, 2, 'bottom'), (4, 3, 'bottom')])"
p1026
(dp1027
g24
F-0.5
ssS"(['-90.0::0.0', '90.0::90.0', '0.0::90.0', '0.0::0.0', '-90.0::-90.0'], [(1, 0, 'bottom'), (2, 1, 'bottom'), (3, 2, 'bottom'), (4, 3, 'bottom')])"
p1028
(dp1029
g16
F-0.5
ssS"(['0.0::0.0', '-90.0::90.0', '-90.0::90.0', '0.0::-90.0', '90.0::90.0'], [(1, 0, 'bottom'), (2, 1, 'bottom'), (3, 2, 'bottom'), (4, 3, 'bottom')])"
p1030
(dp1031
g25
F0.5
sg41
F-0.5
ssS"(['-90.0::-90.0', '0.0::0.0', '0.0::0.0', '-90.0::0.0', '0.0::0.0'], [(1, 0, 'bottom'), (2, 1, 'bottom'), (3, 2, 'bottom'), (4, 3, 'bottom')])"
p1032
(dp1033
g21
F-0.5
ssS"(['-90.0::90.0', '0.0::0.0', '0.0::0.0', '0.0::-90.0', '-90.0::0.0'], [(1, 0, 'bottom'), (2, 1, 'bottom'), (3, 2, 'bottom'), (4, 3, 'bottom')])"
p1034
(dp1035
g24
F-0.5
ssS"(['-90.0::-90.0', '0.0::90.0', '-90.0::90.0', '90.0::0.0', '-90.0::0.0'], [(0, 4, 'bottom'), (1, 0, 'bottom'), (2, 1, 'bottom'), (3, 2, 'bottom'), (4, 3, 'bottom')])"
p1036
(dp1037
g24
F-0.5
ssS"(['-90.0::-90.0', '0.0::90.0', '0.0::90.0', '0.0::0.0', '-90.0::0.0'], [(0, 4, 'bottom'), (1, 0, 'bottom'), (2, 1, 'bottom'), (3, 2, 'bottom'), (4, 3, 'bottom')])"
p1038
(dp1039
g19
F-0.5
sg37
F-0.5
sg21
F-0.5
sg38
F-0.75
sg36
F-0.5
sg11
F-0.5
sg28
F-0.5
sg33
F-0.75
sg16
F-0.5
sg13
F-0.5
sg14
F-0.5
sg35
F-0.0033868098954716874
sg25
F-0.5
sg40
F-0.5
sg42
F-0.5
sg17
F2.6175413110913395
ssS"(['90.0::-90.0', '0.0::-90.0', '0.0::90.0', '-90.0::90.0', '0.0::0.0'], [(1, 0, 'bottom'), (2, 1, 'bottom'), (3, 2, 'bottom'), (4, 3, 'bottom')])"
p1040
(dp1041
g36
F0.5
ssS"(['-90.0::90.0', '0.0::90.0', '90.0::90.0', '0.0::-90.0', '-90.0::90.0'], [(0, 4, 'bottom'), (1, 0, 'bottom'), (2, 1, 'bottom'), (3, 2, 'bottom'), (4, 3, 'bottom')])"
p1042
(dp1043
g42
F-0.5
sg33
F-0.5
sg13
F-0.5
ssS"(['90.0::0.0', '0.0::0.0', '0.0::90.0', '0.0::0.0', '90.0::-90.0'], [(1, 0, 'bottom'), (2, 1, 'bottom'), (3, 2, 'bottom'), (4, 3, 'bottom')])"
p1044
(dp1045
g9
F-0.5
sg34
F-0.5
ssS"(['-90.0::90.0', '0.0::0.0', '0.0::-90.0', '90.0::0.0', '-90.0::90.0'], [(1, 0, 'bottom'), (2, 1, 'bottom'), (3, 2, 'bottom'), (4, 3, 'bottom')])"
p1046
(dp1047
g9
F-0.5
sg20
F-0.5
sg11
F-0.5
sg41
F-0.5
ssS"(['0.0::0.0', '0.0::0.0', '-90.0::0.0', '-90.0::0.0', '-90.0::0.0'], [(1, 0, 'bottom'), (2, 1, 'bottom'), (3, 2, 'bottom'), (4, 3, 'bottom')])"
p1048
(dp1049
g14
F0.5
ssS"(['0.0::90.0', '0.0::-90.0', '0.0::90.0', '0.0::90.0', '-90.0::0.0'], [(1, 0, 'bottom'), (2, 1, 'bottom'), (3, 2, 'bottom'), (4, 3, 'bottom')])"
p1050
(dp1051
g19
F0.5
sg32
F-0.5
ssS"(['-90.0::-90.0', '90.0::-90.0', '90.0::90.0', '0.0::0.0', '0.0::-90.0'], [(0, 4, 'bottom'), (1, 0, 'bottom'), (2, 1, 'bottom'), (3, 2, 'bottom'), (4, 3, 'bottom')])"
p1052
(dp1053
g12
F-0.5
ssS"(['90.0::-90.0', '0.0::90.0', '-90.0::90.0', '0.0::0.0', '-90.0::0.0'], [(0, 4, 'bottom'), (1, 0, 'bottom'), (2, 1, 'bottom'), (3, 2, 'bottom'), (4, 3, 'bottom')])"
p1054
(dp1055
g42
F-0.5
sg41
F-0.5
ssS"(['90.0::0.0', '90.0::-90.0', '-90.0::90.0', '0.0::0.0', '0.0::0.0'], [(1, 0, 'bottom'), (2, 1, 'bottom'), (3, 2, 'bottom'), (4, 3, 'bottom')])"
p1056
(dp1057
g19
F0.5
ssS"(['-90.0::0.0', '-90.0::90.0', '0.0::90.0', '-90.0::-90.0', '-90.0::90.0'], [(0, 4, 'bottom'), (1, 0, 'bottom'), (2, 1, 'bottom'), (3, 2, 'bottom'), (4, 3, 'bottom')])"
p1058
(dp1059
g18
F0.5
sg39
F-0.5
sg32
F-0.5
sg37
F-0.5
ssS"(['-90.0::0.0', '0.0::90.0', '0.0::90.0', '0.0::0.0', '-90.0::90.0'], [(0, 4, 'bottom'), (1, 0, 'bottom'), (2, 1, 'bottom'), (3, 2, 'bottom'), (4, 3, 'bottom')])"
p1060
(dp1061
g18
F1.375
sg19
F-0.5
sg20
F-0.5
sg21
F-0.5
sg32
F-0.1875
sg11
F-0.3125
sg28
F-0.75
sg12
F-0.5
sg13
F-0.5
sg33
F0.1875
sg38
F-0.5
sg36
F-0.5
sg26
F-0.75
sg43
F-0.5
ssS"(['0.0::0.0', '0.0::0.0', '0.0::0.0', '-90.0::0.0', '-90.0::0.0'], [(1, 0, 'bottom'), (2, 1, 'bottom'), (3, 2, 'bottom'), (4, 3, 'bottom')])"
p1062
(dp1063
g14
F1.65625
sg11
F0.1875
sg15
F-0.25
sg40
F-0.5
ssS"(['-90.0::0.0', '0.0::90.0', '0.0::90.0', '0.0::90.0', '-90.0::0.0'], [(1, 0, 'bottom'), (2, 1, 'bottom'), (3, 2, 'bottom'), (4, 3, 'bottom')])"
p1064
(dp1065
g18
F1.5277274631495406
sg19
F1.2777274631495406
sg10
F-0.5
sg30
F-0.5
sg28
F1
sg12
F1.3594010911062309
sg13
F1.6062756381113217
sg16
F4.417802010921088
sg33
F1.6028481981843505
sg22
F-0.5
sg35
F1.4531510911062309
sg42
F1.2122231981843505
sg26
F1.375
ssS"(['-90.0::90.0', '-90.0::90.0', '0.0::90.0', '90.0::90.0', '-90.0::0.0'], [(0, 4, 'bottom'), (1, 0, 'bottom'), (2, 1, 'bottom'), (3, 2, 'bottom'), (4, 3, 'bottom')])"
p1066
(dp1067
g25
F-0.5
sg20
F-0.5
sg22
F-0.5
ssS"(['-90.0::90.0', '-90.0::-90.0', '-90.0::90.0', '0.0::90.0', '0.0::0.0'], [(1, 0, 'bottom'), (2, 1, 'bottom'), (3, 2, 'bottom'), (4, 3, 'bottom')])"
p1068
(dp1069
g18
F-0.5
sg9
F-0.5
sg37
F-0.5
sg25
F-0.5
sg24
F-0.5
sg17
F-0.5
ssS"(['-90.0::0.0', '0.0::0.0', '0.0::-90.0', '-90.0::0.0', '0.0::0.0'], [(1, 0, 'bottom'), (2, 1, 'bottom'), (3, 2, 'bottom'), (4, 3, 'bottom')])"
p1070
(dp1071
g29
F-0.5
ssS"(['-90.0::0.0', '90.0::0.0', '0.0::90.0', '0.0::-90.0', '-90.0::0.0'], [(0, 4, 'bottom'), (1, 0, 'bottom'), (2, 1, 'bottom'), (3, 2, 'bottom'), (4, 3, 'bottom')])"
p1072
(dp1073
g43
F-0.5
sg29
F-0.5
ssS"(['-90.0::0.0', '0.0::0.0', '0.0::90.0', '0.0::0.0', '90.0::0.0'], [(1, 0, 'bottom'), (2, 1, 'bottom'), (3, 2, 'bottom'), (4, 3, 'bottom')])"
p1074
(dp1075
g34
F-0.5
ssS"(['0.0::0.0', '0.0::0.0', '90.0::-90.0', '0.0::-90.0', '0.0::0.0'], [(1, 0, 'bottom'), (2, 1, 'bottom'), (3, 2, 'bottom'), (4, 3, 'bottom')])"
p1076
(dp1077
g31
F-0.5
sg33
F-0.5
ssS"(['0.0::0.0', '0.0::0.0', '0.0::90.0', '-90.0::90.0', '0.0::0.0'], [(1, 0, 'bottom'), (2, 1, 'bottom'), (3, 2, 'bottom'), (4, 3, 'bottom')])"
p1078
(dp1079
g26
F-0.5
sg33
F-0.5
ssS"(['-90.0::90.0', '0.0::90.0', '0.0::90.0', '0.0::0.0', '0.0::0.0'], [(0, 4, 'bottom'), (1, 0, 'bottom'), (2, 1, 'bottom'), (3, 2, 'bottom'), (4, 3, 'bottom')])"
p1080
(dp1081
g42
F-0.5
sg33
F-0.5
sg34
F-0.5
ssS"(['0.0::90.0', '-90.0::0.0', '-90.0::90.0', '0.0::0.0', '90.0::90.0'], [(1, 0, 'bottom'), (2, 1, 'bottom'), (3, 2, 'bottom'), (4, 3, 'bottom')])"
p1082
(dp1083
g13
F0.5
ssS"(['-90.0::90.0', '90.0::0.0', '90.0::90.0', '0.0::0.0', '0.0::0.0'], [(1, 0, 'bottom'), (2, 1, 'bottom'), (3, 2, 'bottom'), (4, 3, 'bottom')])"
p1084
(dp1085
g18
F-0.5
sg23
F-0.5
sg41
F0.5
ssS"(['-90.0::0.0', '0.0::90.0', '0.0::-90.0', '0.0::0.0', '-90.0::0.0'], [(0, 4, 'bottom'), (1, 0, 'bottom'), (2, 1, 'bottom'), (3, 2, 'bottom'), (4, 3, 'bottom')])"
p1086
(dp1087
g17
F-0.5
ssS"(['0.0::0.0', '0.0::90.0', '0.0::90.0', '0.0::90.0', '-90.0::0.0'], [(1, 0, 'bottom'), (2, 1, 'bottom'), (3, 2, 'bottom'), (4, 3, 'bottom')])"
p1088
(dp1089
g27
F0.875
sg9
F-0.25
sg17
F-0.5
sg10
F-0.5
ssS"(['-90.0::0.0', '0.0::90.0', '90.0::-90.0', '0.0::0.0', '-90.0::0.0'], [(1, 0, 'bottom'), (2, 1, 'bottom'), (3, 2, 'bottom'), (4, 3, 'bottom')])"
p1090
(dp1091
g12
F-0.5
sg21
F0.5
ssS"(['0.0::90.0', '-90.0::0.0', '-90.0::-90.0', '0.0::0.0', '-90.0::90.0'], [(1, 0, 'bottom'), (2, 1, 'bottom'), (3, 2, 'bottom'), (4, 3, 'bottom')])"
p1092
(dp1093
g21
F0.5
ssS"(['-90.0::-90.0', '-90.0::90.0', '90.0::90.0', '0.0::0.0', '-90.0::0.0'], [(0, 4, 'bottom'), (1, 0, 'bottom'), (2, 1, 'bottom'), (3, 2, 'bottom'), (4, 3, 'bottom')])"
p1094
(dp1095
g24
F-0.5
sg33
F-0.5
sg41
F-0.5
ssS"(['0.0::0.0', '0.0::0.0', '0.0::90.0', '0.0::-90.0', '-90.0::-90.0'], [(0, 4, 'bottom'), (1, 0, 'bottom'), (2, 1, 'bottom'), (3, 2, 'bottom'), (4, 3, 'bottom')])"
p1096
(dp1097
g36
F-0.5
sg11
F-0.5
ssS"(['-90.0::0.0', '0.0::0.0', '0.0::90.0', '-90.0::0.0', '-90.0::90.0'], [(1, 0, 'bottom'), (2, 1, 'bottom'), (3, 2, 'bottom'), (4, 3, 'bottom')])"
p1098
(dp1099
g10
F-0.5
ssS"(['-90.0::90.0', '0.0::90.0', '90.0::0.0', '0.0::0.0', '-90.0::90.0'], [(1, 0, 'bottom'), (2, 1, 'bottom'), (3, 2, 'bottom'), (4, 3, 'bottom')])"
p1100
(dp1101
g40
F0.5
sg17
F-0.5
ssS"(['0.0::0.0', '0.0::0.0', '0.0::90.0', '0.0::90.0', '-90.0::0.0'], [(1, 0, 'bottom'), (2, 1, 'bottom'), (3, 2, 'bottom'), (4, 3, 'bottom')])"
p1102
(dp1103
g19
F-0.5
sg29
F-0.75
sg32
F-0.5
sg13
F-0.5
sg34
F-0.5
sg24
F-0.5
ssS"(['0.0::0.0', '-90.0::0.0', '-90.0::90.0', '0.0::0.0', '90.0::90.0'], [(1, 0, 'bottom'), (2, 1, 'bottom'), (3, 2, 'bottom'), (4, 3, 'bottom')])"
p1104
(dp1105
g13
F-0.5
ssS"(['0.0::0.0', '90.0::90.0', '0.0::0.0', '0.0::90.0', '-90.0::0.0'], [(1, 0, 'bottom'), (2, 1, 'bottom'), (3, 2, 'bottom'), (4, 3, 'bottom')])"
p1106
(dp1107
g15
F-0.5
sg34
F-0.5
ssS"(['0.0::0.0', '0.0::90.0', '0.0::90.0', '0.0::0.0', '-90.0::0.0'], [(1, 0, 'bottom'), (2, 1, 'bottom'), (3, 2, 'bottom'), (4, 3, 'bottom')])"
p1108
(dp1109
g29
F-0.5
sg11
F-0.5
sg31
F-0.5
sg25
F-0.5
ssS"(['-90.0::90.0', '0.0::0.0', '0.0::90.0', '0.0::0.0', '-90.0::90.0'], [(1, 0, 'bottom'), (2, 1, 'bottom'), (3, 2, 'bottom'), (4, 3, 'bottom')])"
p1110
(dp1111
g21
F0.5
ssS"(['-90.0::-90.0', '0.0::90.0', '0.0::0.0', '0.0::0.0', '-90.0::0.0'], [(1, 0, 'bottom'), (2, 1, 'bottom'), (3, 2, 'bottom'), (4, 3, 'bottom')])"
p1112
(dp1113
g35
F-0.5
sg26
F0.5
sg13
F-0.5
ssS"(['-90.0::-90.0', '0.0::90.0', '0.0::0.0', '0.0::0.0', '-90.0::0.0'], [(0, 4, 'bottom'), (1, 0, 'bottom'), (2, 1, 'bottom'), (3, 2, 'bottom'), (4, 3, 'bottom')])"
p1114
(dp1115
g17
F-0.5
ssS"(['-90.0::0.0', '0.0::90.0', '-90.0::90.0', '90.0::0.0', '-90.0::0.0'], [(0, 4, 'bottom'), (1, 0, 'bottom'), (2, 1, 'bottom'), (3, 2, 'bottom'), (4, 3, 'bottom')])"
p1116
(dp1117
g37
F-0.5
sg39
F-0.75
sg12
F-0.5
sg35
F-0.5
sg25
F-0.5
sg17
F-0.5
ssS"(['90.0::-90.0', '-90.0::90.0', '-90.0::90.0', '0.0::0.0', '-90.0::0.0'], [(0, 4, 'bottom'), (1, 0, 'bottom'), (2, 1, 'bottom'), (3, 2, 'bottom'), (4, 3, 'bottom')])"
p1118
(dp1119
g37
F-0.5
sg24
F-0.5
ssS"(['-90.0::-90.0', '-90.0::90.0', '90.0::-90.0', '0.0::0.0', '0.0::0.0'], [(1, 0, 'bottom'), (2, 1, 'bottom'), (3, 2, 'bottom'), (4, 3, 'bottom')])"
p1120
(dp1121
g19
F-0.75
sg23
F-0.5
sg26
F0.5
sg33
F-0.5
ssS"(['-90.0::-90.0', '-90.0::0.0', '0.0::90.0', '0.0::90.0', '0.0::0.0'], [(1, 0, 'bottom'), (2, 1, 'bottom'), (3, 2, 'bottom'), (4, 3, 'bottom')])"
p1122
(dp1123
g42
F-0.5
sg38
F-0.5
sg27
F-0.5
sg13
F-0.5
sg25
F-0.5
ssS"(['-90.0::0.0', '90.0::-90.0', '0.0::90.0', '90.0::90.0', '-90.0::-90.0'], [(1, 0, 'bottom'), (2, 1, 'bottom'), (3, 2, 'bottom'), (4, 3, 'bottom')])"
p1124
(dp1125
g17
F-0.5
ssS"(['-90.0::0.0', '90.0::0.0', '0.0::0.0', '0.0::0.0', '-90.0::0.0'], [(1, 0, 'bottom'), (2, 1, 'bottom'), (3, 2, 'bottom'), (4, 3, 'bottom')])"
p1126
(dp1127
g38
F-0.25
sg23
F-0.5
sg41
F0.998046875
ssS"(['0.0::-90.0', '0.0::90.0', '0.0::0.0', '0.0::-90.0', '-90.0::0.0'], [(1, 0, 'bottom'), (2, 1, 'bottom'), (3, 2, 'bottom'), (4, 3, 'bottom')])"
p1128
(dp1129
g30
F-0.5
ssS"(['-90.0::0.0', '0.0::90.0', '90.0::0.0', '0.0::0.0', '-90.0::90.0'], [(1, 0, 'bottom'), (2, 1, 'bottom'), (3, 2, 'bottom'), (4, 3, 'bottom')])"
p1130
(dp1131
g39
F-0.5
sg15
F-0.5
sg33
F-0.5
sg34
F-0.5
ssS"(['-90.0::0.0', '-90.0::-90.0', '90.0::0.0', '-90.0::0.0', '-90.0::0.0'], [(1, 0, 'bottom'), (2, 1, 'bottom'), (3, 2, 'bottom'), (4, 3, 'bottom')])"
p1132
(dp1133
g43
F-0.5
sg10
F0.5
ssS"(['-90.0::-90.0', '90.0::0.0', '0.0::90.0', '90.0::0.0', '90.0::0.0'], [(1, 0, 'bottom'), (2, 1, 'bottom'), (3, 2, 'bottom'), (4, 3, 'bottom')])"
p1134
(dp1135
g9
F-0.5
sg25
F-0.5
ssS"(['-90.0::-90.0', '-90.0::-90.0', '0.0::90.0', '0.0::90.0', '0.0::0.0'], [(1, 0, 'bottom'), (2, 1, 'bottom'), (3, 2, 'bottom'), (4, 3, 'bottom')])"
p1136
(dp1137
g30
F-0.5
ssS"(['-90.0::0.0', '90.0::90.0', '0.0::90.0', '0.0::0.0', '0.0::90.0'], [(0, 4, 'bottom'), (1, 0, 'bottom'), (2, 1, 'bottom'), (3, 2, 'bottom'), (4, 3, 'bottom')])"
p1138
(dp1139
g29
F-0.5
sg33
F-0.5
ssS"(['-90.0::0.0', '90.0::90.0', '0.0::90.0', '0.0::0.0', '-90.0::-90.0'], [(0, 4, 'bottom'), (1, 0, 'bottom'), (2, 1, 'bottom'), (3, 2, 'bottom'), (4, 3, 'bottom')])"
p1140
(dp1141
g41
F-0.5
ssS"(['-90.0::0.0', '-90.0::-90.0', '90.0::0.0', '0.0::0.0', '-90.0::0.0'], [(1, 0, 'bottom'), (2, 1, 'bottom'), (3, 2, 'bottom'), (4, 3, 'bottom')])"
p1142
(dp1143
g18
F-0.5
sg31
F-0.5
ssS"(['-90.0::0.0', '0.0::0.0', '-90.0::90.0', '-90.0::0.0', '0.0::-90.0'], [(1, 0, 'bottom'), (2, 1, 'bottom'), (3, 2, 'bottom'), (4, 3, 'bottom')])"
p1144
(dp1145
g22
F-0.5
sg12
F-0.5
ssS"(['-90.0::-90.0', '0.0::0.0', '90.0::90.0', '0.0::-90.0', '0.0::90.0'], [(0, 4, 'bottom'), (1, 0, 'bottom'), (2, 1, 'bottom'), (3, 2, 'bottom'), (4, 3, 'bottom')])"
p1146
(dp1147
g35
F-0.5
sg14
F-0.5
ssS"(['-90.0::0.0', '-90.0::-90.0', '0.0::90.0', '-90.0::0.0', '-90.0::0.0'], [(1, 0, 'bottom'), (2, 1, 'bottom'), (3, 2, 'bottom'), (4, 3, 'bottom')])"
p1148
(dp1149
g27
F-0.5
sg18
F-0.5
sg22
F-0.5
sg32
F-0.5
sg11
F-0.5
sg12
F-0.5
sg38
F-0.5
sg36
F-0.5
sg43
F-0.5
sg42
F-0.5
ssS"(['-90.0::0.0', '-90.0::90.0', '0.0::90.0', '0.0::-90.0', '-90.0::-90.0'], [(0, 4, 'bottom'), (1, 0, 'bottom'), (2, 1, 'bottom'), (3, 2, 'bottom'), (4, 3, 'bottom')])"
p1150
(dp1151
g35
F-0.5
sg24
F-0.5
ssS"(['0.0::0.0', '90.0::0.0', '90.0::90.0', '0.0::0.0', '-90.0::0.0'], [(1, 0, 'bottom'), (2, 1, 'bottom'), (3, 2, 'bottom'), (4, 3, 'bottom')])"
p1152
(dp1153
g21
F0.5
ssS"(['-90.0::-90.0', '0.0::0.0', '0.0::90.0', '0.0::0.0', '-90.0::-90.0'], [(0, 4, 'bottom'), (1, 0, 'bottom'), (2, 1, 'bottom'), (3, 2, 'bottom'), (4, 3, 'bottom')])"
p1154
(dp1155
g21
F-0.5
ssS"(['-90.0::0.0', '-90.0::90.0', '0.0::90.0', '-90.0::-90.0', '-90.0::90.0'], [(1, 0, 'bottom'), (2, 1, 'bottom'), (3, 2, 'bottom'), (4, 3, 'bottom')])"
p1156
(dp1157
g21
F0.5
ssS"(['0.0::-90.0', '0.0::0.0', '0.0::0.0', '0.0::-90.0', '-90.0::0.0'], [(1, 0, 'bottom'), (2, 1, 'bottom'), (3, 2, 'bottom'), (4, 3, 'bottom')])"
p1158
(dp1159
g22
F-0.5
sg12
F-0.5
ssS"(['-90.0::-90.0', '0.0::0.0', '-90.0::0.0', '0.0::0.0', '0.0::0.0'], [(1, 0, 'bottom'), (2, 1, 'bottom'), (3, 2, 'bottom'), (4, 3, 'bottom')])"
p1160
(dp1161
g14
F-0.5
ssS"(['-90.0::90.0', '0.0::90.0', '0.0::0.0', '0.0::0.0', '-90.0::0.0'], [(1, 0, 'bottom'), (2, 1, 'bottom'), (3, 2, 'bottom'), (4, 3, 'bottom')])"
p1162
(dp1163
g29
F-0.75
sg41
F-0.5
ssS"(['-90.0::0.0', '-90.0::90.0', '-90.0::90.0', '0.0::0.0', '-90.0::0.0'], [(0, 4, 'bottom'), (1, 0, 'bottom'), (2, 1, 'bottom'), (3, 2, 'bottom'), (4, 3, 'bottom')])"
p1164
(dp1165
g14
F-0.5
sg33
F-0.5
sg37
F-0.5
ssS"(['0.0::0.0', '90.0::-90.0', '-90.0::90.0', '0.0::0.0', '0.0::0.0'], [(1, 0, 'bottom'), (2, 1, 'bottom'), (3, 2, 'bottom'), (4, 3, 'bottom')])"
p1166
(dp1167
g26
F-0.5
ssS"(['0.0::0.0', '-90.0::90.0', '0.0::-90.0', '0.0::0.0', '0.0::0.0'], [(1, 0, 'bottom'), (2, 1, 'bottom'), (3, 2, 'bottom'), (4, 3, 'bottom')])"
p1168
(dp1169
g29
F-0.5
ssS"(['-90.0::90.0', '0.0::90.0', '0.0::90.0', '90.0::90.0', '-90.0::0.0'], [(0, 4, 'bottom'), (1, 0, 'bottom'), (2, 1, 'bottom'), (3, 2, 'bottom'), (4, 3, 'bottom')])"
p1170
(dp1171
g41
F-0.5
ssS"(['0.0::0.0', '90.0::0.0', '90.0::90.0', '0.0::0.0', '0.0::0.0'], [(1, 0, 'bottom'), (2, 1, 'bottom'), (3, 2, 'bottom'), (4, 3, 'bottom')])"
p1172
(dp1173
g31
F-0.5
sg12
F-0.5
ssS"(['-90.0::0.0', '0.0::0.0', '90.0::-90.0', '0.0::-90.0', '-90.0::0.0'], [(1, 0, 'bottom'), (2, 1, 'bottom'), (3, 2, 'bottom'), (4, 3, 'bottom')])"
p1174
(dp1175
g27
F-0.5
ssS"(['-90.0::0.0', '-90.0::90.0', '0.0::0.0', '-90.0::0.0', '90.0::90.0'], [(1, 0, 'bottom'), (2, 1, 'bottom'), (3, 2, 'bottom'), (4, 3, 'bottom')])"
p1176
(dp1177
g9
F-0.5
sg10
F0.5
ssS"(['-90.0::0.0', '0.0::90.0', '-90.0::0.0', '0.0::-90.0', '-90.0::0.0'], [(1, 0, 'bottom'), (2, 1, 'bottom'), (3, 2, 'bottom'), (4, 3, 'bottom')])"
p1178
(dp1179
g23
F0.5
sg20
F-0.5
ssS"(['-90.0::0.0', '-90.0::0.0', '0.0::90.0', '0.0::0.0', '0.0::0.0'], [(1, 0, 'bottom'), (2, 1, 'bottom'), (3, 2, 'bottom'), (4, 3, 'bottom')])"
p1180
(dp1181
g22
F-0.5
sg24
F-0.5
sg23
F-0.5
sg34
F-0.5
sg10
F0.75
ssS"(['-90.0::0.0', '90.0::0.0', '0.0::0.0', '-90.0::90.0', '90.0::0.0'], [(1, 0, 'bottom'), (2, 1, 'bottom'), (3, 2, 'bottom'), (4, 3, 'bottom')])"
p1182
(dp1183
g34
F-0.5
ssS"(['0.0::90.0', '0.0::0.0', '-90.0::90.0', '0.0::0.0', '0.0::90.0'], [(1, 0, 'bottom'), (2, 1, 'bottom'), (3, 2, 'bottom'), (4, 3, 'bottom')])"
p1184
(dp1185
g22
F0.5
ssS"(['-90.0::90.0', '0.0::90.0', '0.0::90.0', '0.0::90.0', '-90.0::0.0'], [(1, 0, 'bottom'), (2, 1, 'bottom'), (3, 2, 'bottom'), (4, 3, 'bottom')])"
p1186
(dp1187
g13
F2.4622231981843505
ssS"(['-90.0::90.0', '0.0::90.0', '-90.0::0.0', '-90.0::0.0', '-90.0::90.0'], [(1, 0, 'bottom'), (2, 1, 'bottom'), (3, 2, 'bottom'), (4, 3, 'bottom')])"
p1188
(dp1189
g9
F-0.5
sg37
F-0.5
sg39
F-0.5
sg12
F-0.5
sg22
F0.5
sg36
F-0.5
ssS"(['-90.0::-90.0', '0.0::0.0', '-90.0::0.0', '0.0::0.0', '-90.0::-90.0'], [(1, 0, 'bottom'), (2, 1, 'bottom'), (3, 2, 'bottom'), (4, 3, 'bottom')])"
p1190
(dp1191
g18
F-0.5
sg43
F-0.5
sg10
F-0.5
ssS"(['-90.0::0.0', '90.0::90.0', '0.0::-90.0', '0.0::0.0', '0.0::0.0'], [(1, 0, 'bottom'), (2, 1, 'bottom'), (3, 2, 'bottom'), (4, 3, 'bottom')])"
p1192
(dp1193
g23
F-0.5
ssS"(['-90.0::-90.0', '0.0::0.0', '0.0::90.0', '0.0::0.0', '0.0::0.0'], [(1, 0, 'bottom'), (2, 1, 'bottom'), (3, 2, 'bottom'), (4, 3, 'bottom')])"
p1194
(dp1195
g9
F-0.5
sg32
F-0.5
sg26
F0.5
ssS"(['-90.0::0.0', '-90.0::0.0', '0.0::0.0', '-90.0::90.0', '-90.0::-90.0'], [(1, 0, 'bottom'), (2, 1, 'bottom'), (3, 2, 'bottom'), (4, 3, 'bottom')])"
p1196
(dp1197
g31
F-0.5
sg20
F-0.5
sg34
F-0.5
ssS"(['-90.0::-90.0', '0.0::-90.0', '0.0::0.0', '0.0::0.0', '0.0::0.0'], [(1, 0, 'bottom'), (2, 1, 'bottom'), (3, 2, 'bottom'), (4, 3, 'bottom')])"
p1198
(dp1199
g14
F-0.5
ssS"(['0.0::0.0', '-90.0::0.0', '0.0::0.0', '0.0::0.0', '-90.0::0.0'], [(1, 0, 'bottom'), (2, 1, 'bottom'), (3, 2, 'bottom'), (4, 3, 'bottom')])"
p1200
(dp1201
g17
F-0.5
ssS"(['-90.0::0.0', '0.0::90.0', '90.0::0.0', '0.0::90.0', '-90.0::0.0'], [(1, 0, 'bottom'), (2, 1, 'bottom'), (3, 2, 'bottom'), (4, 3, 'bottom')])"
p1202
(dp1203
g30
F-0.5
ssS"(['-90.0::-90.0', '-90.0::90.0', '0.0::90.0', '0.0::0.0', '-90.0::90.0'], [(0, 4, 'bottom'), (1, 0, 'bottom'), (2, 1, 'bottom'), (3, 2, 'bottom'), (4, 3, 'bottom')])"
p1204
(dp1205
g35
F-0.5
sg20
F-0.5
sg22
F-0.5
ssS"(['0.0::90.0', '-90.0::90.0', '-90.0::90.0', '0.0::0.0', '0.0::0.0'], [(1, 0, 'bottom'), (2, 1, 'bottom'), (3, 2, 'bottom'), (4, 3, 'bottom')])"
p1206
(dp1207
g24
F-0.5
ssS"(['-90.0::0.0', '0.0::0.0', '-90.0::0.0', '0.0::0.0', '0.0::0.0'], [(1, 0, 'bottom'), (2, 1, 'bottom'), (3, 2, 'bottom'), (4, 3, 'bottom')])"
p1208
(dp1209
g11
F-0.5
sg13
F-0.5
ssS"(['-90.0::90.0', '-90.0::0.0', '90.0::0.0', '-90.0::-90.0', '0.0::0.0'], [(1, 0, 'bottom'), (2, 1, 'bottom'), (3, 2, 'bottom'), (4, 3, 'bottom')])"
p1210
(dp1211
g35
F-0.5
sg11
F-0.5
sg23
F-0.5
sg21
F-0.5
ssS"(['-90.0::0.0', '0.0::90.0', '0.0::90.0', '0.0::0.0', '-90.0::0.0'], [(0, 4, 'bottom'), (1, 0, 'bottom'), (2, 1, 'bottom'), (3, 2, 'bottom'), (4, 3, 'bottom')])"
p1212
(dp1213
g9
F2.1178691708532704
sg10
F1.4057323064285141
sg11
F3.2101148946190352
sg29
F-0.9921875
sg13
F0.49588238454615019
sg38
F3.2005644712622714
sg40
F-0.875
sg17
F1.4758556625109893
sg18
F4.7645956686481306
sg19
F3.0823515646685475
sg20
F2.9804820128845231
sg21
F-0.9921875
sg22
F1.6939758817477073
sg23
F0.6385498046875
sg24
F-0.9990234375
sg25
F3.3401345897396393
sg26
F1.4367576955699133
sg27
F1.3188752197450822
sg15
F3.0426849083602918
sg12
F2.956033824050277
sg30
F-0.998046875
sg31
F-0.99993896484375
sg32
F3.0013876487718925
sg33
F2.8233720897122891
sg34
F-0.99993896484375
sg35
F3.1851579011076723
sg36
F3.2778311586371087
sg28
F-0.43359375
sg37
F3.1810068392692958
sg14
F1.2220739829681406
sg39
F0.14453125
sg16
F-0.998046875
sg41
F-0.999755859375
sg42
F2.9921467754385711
sg43
F1.9764581715390481
ssS"(['-90.0::-90.0', '0.0::90.0', '0.0::90.0', '90.0::0.0', '-90.0::-90.0'], [(1, 0, 'bottom'), (2, 1, 'bottom'), (3, 2, 'bottom'), (4, 3, 'bottom')])"
p1214
(dp1215
g33
F-0.5
sg16
F-0.5
ssS"(['-90.0::-90.0', '0.0::90.0', '0.0::90.0', '90.0::90.0', '-90.0::0.0'], [(0, 4, 'bottom'), (1, 0, 'bottom'), (2, 1, 'bottom'), (3, 2, 'bottom'), (4, 3, 'bottom')])"
p1216
(dp1217
g14
F-0.5
sg40
F-0.5
ssS"(['-90.0::0.0', '0.0::0.0', '0.0::90.0', '0.0::-90.0', '-90.0::-90.0'], [(0, 4, 'bottom'), (1, 0, 'bottom'), (2, 1, 'bottom'), (3, 2, 'bottom'), (4, 3, 'bottom')])"
p1218
(dp1219
g22
F-0.5
sg43
F-0.5
sg41
F-0.5
sg13
F-0.5
ssS"(['0.0::0.0', '0.0::0.0', '90.0::-90.0', '0.0::0.0', '0.0::0.0'], [(1, 0, 'bottom'), (2, 1, 'bottom'), (3, 2, 'bottom'), (4, 3, 'bottom')])"
p1220
(dp1221
g15
F-0.5
sg16
F-0.5
ssS"(['-90.0::0.0', '0.0::0.0', '0.0::0.0', '-90.0::0.0', '0.0::0.0'], [(1, 0, 'bottom'), (2, 1, 'bottom'), (3, 2, 'bottom'), (4, 3, 'bottom')])"
p1222
(dp1223
g28
F-0.5
ssS"(['-90.0::0.0', '-90.0::-90.0', '0.0::90.0', '0.0::-90.0', '90.0::-90.0'], [(1, 0, 'bottom'), (2, 1, 'bottom'), (3, 2, 'bottom'), (4, 3, 'bottom')])"
p1224
(dp1225
g34
F-0.5
ssS"(['0.0::90.0', '-90.0::0.0', '0.0::90.0', '0.0::-90.0', '-90.0::90.0'], [(1, 0, 'bottom'), (2, 1, 'bottom'), (3, 2, 'bottom'), (4, 3, 'bottom')])"
p1226
(dp1227
g27
F-0.5
ssS"(['-90.0::0.0', '0.0::0.0', '0.0::90.0', '90.0::0.0', '-90.0::0.0'], [(1, 0, 'bottom'), (2, 1, 'bottom'), (3, 2, 'bottom'), (4, 3, 'bottom')])"
p1228
(dp1229
g38
F-0.5
sg32
F-0.5
sg11
F-0.5
sg39
F-0.5
sg12
F-0.5
sg33
F-0.75
sg14
F-0.5
sg35
F-0.5
sg24
F-0.5
sg43
F-0.875
ssS"(['-90.0::0.0', '0.0::-90.0', '-90.0::-90.0', '0.0::90.0', '-90.0::-90.0'], [(1, 0, 'bottom'), (2, 1, 'bottom'), (3, 2, 'bottom'), (4, 3, 'bottom')])"
p1230
(dp1231
g35
F-0.5
sg24
F-0.5
ssS"(['-90.0::0.0', '0.0::90.0', '0.0::0.0', '0.0::0.0', '-90.0::0.0'], [(1, 0, 'bottom'), (2, 1, 'bottom'), (3, 2, 'bottom'), (4, 3, 'bottom')])"
p1232
(dp1233
g20
F-0.75
sg12
F-0.75
sg30
F-0.5
sg29
F-0.5
sg33
F-0.5
sg13
F-0.5
sg32
F-0.5
sg41
F-0.75
sg24
F-0.5
sg17
F-0.75
ssS"(['-90.0::-90.0', '0.0::90.0', '0.0::0.0', '-90.0::0.0', '0.0::0.0'], [(1, 0, 'bottom'), (2, 1, 'bottom'), (3, 2, 'bottom'), (4, 3, 'bottom')])"
p1234
(dp1235
g27
F0.5
sg31
F-0.5
ssS"(['0.0::-90.0', '0.0::0.0', '-90.0::90.0', '-90.0::0.0', '90.0::90.0'], [(1, 0, 'bottom'), (2, 1, 'bottom'), (3, 2, 'bottom'), (4, 3, 'bottom')])"
p1236
(dp1237
g14
F0.5
ssS"(['-90.0::90.0', '0.0::90.0', '0.0::90.0', '0.0::-90.0', '-90.0::90.0'], [(0, 4, 'bottom'), (1, 0, 'bottom'), (2, 1, 'bottom'), (3, 2, 'bottom'), (4, 3, 'bottom')])"
p1238
(dp1239
g11
F-0.5
sg43
F-0.5
sg29
F-0.5
sg37
F-0.5
ssS"(['-90.0::-90.0', '0.0::90.0', '0.0::90.0', '90.0::-90.0', '-90.0::-90.0'], [(1, 0, 'bottom'), (2, 1, 'bottom'), (3, 2, 'bottom'), (4, 3, 'bottom')])"
p1240
(dp1241
g18
F-0.5
sg30
F-0.5
ssS"(['90.0::90.0', '0.0::90.0', '0.0::90.0', '90.0::0.0', '-90.0::-90.0'], [(1, 0, 'bottom'), (2, 1, 'bottom'), (3, 2, 'bottom'), (4, 3, 'bottom')])"
p1242
(dp1243
g42
F-0.5
sg35
F-0.5
sg10
F-0.5
ssS"(['-90.0::90.0', '0.0::90.0', '-90.0::90.0', '0.0::0.0', '-90.0::0.0'], [(1, 0, 'bottom'), (2, 1, 'bottom'), (3, 2, 'bottom'), (4, 3, 'bottom')])"
p1244
(dp1245
g26
F0.5
ssS"(['0.0::0.0', '90.0::0.0', '0.0::90.0', '-90.0::0.0', '-90.0::90.0'], [(1, 0, 'bottom'), (2, 1, 'bottom'), (3, 2, 'bottom'), (4, 3, 'bottom')])"
p1246
(dp1247
g26
F-0.5
ssS"(['90.0::90.0', '0.0::90.0', '0.0::90.0', '90.0::0.0', '-90.0::0.0'], [(1, 0, 'bottom'), (2, 1, 'bottom'), (3, 2, 'bottom'), (4, 3, 'bottom')])"
p1248
(dp1249
g22
F-0.5
ssS"(['-90.0::90.0', '-90.0::90.0', '-90.0::90.0', '0.0::-90.0', '-90.0::90.0'], [(1, 0, 'bottom'), (2, 1, 'bottom'), (3, 2, 'bottom'), (4, 3, 'bottom')])"
p1250
(dp1251
g27
F0.5
ssS"(['0.0::0.0', '90.0::90.0', '0.0::90.0', '0.0::-90.0', '-90.0::-90.0'], [(0, 4, 'bottom'), (1, 0, 'bottom'), (2, 1, 'bottom'), (3, 2, 'bottom'), (4, 3, 'bottom')])"
p1252
(dp1253
g27
F-0.5
sg16
F-0.5
ssS"(['-90.0::-90.0', '0.0::90.0', '90.0::90.0', '0.0::0.0', '0.0::-90.0'], [(0, 4, 'bottom'), (1, 0, 'bottom'), (2, 1, 'bottom'), (3, 2, 'bottom'), (4, 3, 'bottom')])"
p1254
(dp1255
g40
F-0.5
sg37
F-0.5
ssS"(['0.0::-90.0', '0.0::90.0', '-90.0::90.0', '0.0::-90.0', '-90.0::0.0'], [(1, 0, 'bottom'), (2, 1, 'bottom'), (3, 2, 'bottom'), (4, 3, 'bottom')])"
p1256
(dp1257
g15
F-0.5
sg31
F-0.5
ssS"(['0.0::90.0', '-90.0::0.0', '0.0::0.0', '0.0::0.0', '-90.0::0.0'], [(1, 0, 'bottom'), (2, 1, 'bottom'), (3, 2, 'bottom'), (4, 3, 'bottom')])"
p1258
(dp1259
g38
F-0.5
ssS"(['0.0::90.0', '0.0::90.0', '-90.0::90.0', '0.0::0.0', '0.0::0.0'], [(1, 0, 'bottom'), (2, 1, 'bottom'), (3, 2, 'bottom'), (4, 3, 'bottom')])"
p1260
(dp1261
g41
F-0.5
ssS"(['-90.0::0.0', '-90.0::0.0', '-90.0::0.0', '0.0::0.0', '-90.0::-90.0'], [(1, 0, 'bottom'), (2, 1, 'bottom'), (3, 2, 'bottom'), (4, 3, 'bottom')])"
p1262
(dp1263
g11
F-0.5
sg15
F-0.5
sg24
F-0.5
ssS"(['-90.0::0.0', '0.0::0.0', '-90.0::90.0', '0.0::0.0', '0.0::0.0'], [(1, 0, 'bottom'), (2, 1, 'bottom'), (3, 2, 'bottom'), (4, 3, 'bottom')])"
p1264
(dp1265
g39
F-0.5
ssS"(['-90.0::0.0', '0.0::90.0', '-90.0::90.0', '0.0::0.0', '0.0::0.0'], [(0, 4, 'bottom'), (1, 0, 'bottom'), (2, 1, 'bottom'), (3, 2, 'bottom'), (4, 3, 'bottom')])"
p1266
(dp1267
g17
F-0.5
ssS"(['-90.0::90.0', '0.0::0.0', '-90.0::90.0', '-90.0::0.0', '0.0::90.0'], [(1, 0, 'bottom'), (2, 1, 'bottom'), (3, 2, 'bottom'), (4, 3, 'bottom')])"
p1268
(dp1269
g26
F0.75
ssS"(['0.0::-90.0', '0.0::0.0', '0.0::0.0', '0.0::-90.0', '-90.0::-90.0'], [(1, 0, 'bottom'), (2, 1, 'bottom'), (3, 2, 'bottom'), (4, 3, 'bottom')])"
p1270
(dp1271
g12
F-0.5
sg24
F-0.5
ssS"(['-90.0::-90.0', '0.0::90.0', '0.0::90.0', '0.0::90.0', '-90.0::0.0'], [(0, 4, 'bottom'), (1, 0, 'bottom'), (2, 1, 'bottom'), (3, 2, 'bottom'), (4, 3, 'bottom')])"
p1272
(dp1273
g18
F0.5
sg19
F-0.5
sg13
F-0.5
ssS"(['0.0::-90.0', '0.0::-90.0', '90.0::90.0', '-90.0::0.0', '-90.0::-90.0'], [(1, 0, 'bottom'), (2, 1, 'bottom'), (3, 2, 'bottom'), (4, 3, 'bottom')])"
p1274
(dp1275
g32
F-0.5
sg40
F0.5
ssS"(['-90.0::-90.0', '0.0::90.0', '0.0::90.0', '-90.0::0.0', '0.0::0.0'], [(0, 4, 'bottom'), (1, 0, 'bottom'), (2, 1, 'bottom'), (3, 2, 'bottom'), (4, 3, 'bottom')])"
p1276
(dp1277
g28
F-0.5
sg15
F-0.5
ssS"(['-90.0::0.0', '0.0::90.0', '90.0::0.0', '0.0::0.0', '-90.0::0.0'], [(1, 0, 'bottom'), (2, 1, 'bottom'), (3, 2, 'bottom'), (4, 3, 'bottom')])"
p1278
(dp1279
g27
F0.5
sg18
F-0.5
sg39
F-0.5
sg28
F-0.5
sg12
F-0.5
sg24
F-0.5
ssS"(['-90.0::-90.0', '0.0::-90.0', '-90.0::90.0', '0.0::90.0', '0.0::90.0'], [(1, 0, 'bottom'), (2, 1, 'bottom'), (3, 2, 'bottom'), (4, 3, 'bottom')])"
p1280
(dp1281
g30
F-0.5
sg15
F-0.5
ssS"(['0.0::-90.0', '90.0::-90.0', '90.0::90.0', '0.0::0.0', '-90.0::-90.0'], [(0, 4, 'bottom'), (1, 0, 'bottom'), (2, 1, 'bottom'), (3, 2, 'bottom'), (4, 3, 'bottom')])"
p1282
(dp1283
g32
F-0.5
sg40
F-0.5
ssS"(['-90.0::0.0', '-90.0::0.0', '0.0::90.0', '90.0::90.0', '0.0::0.0'], [(1, 0, 'bottom'), (2, 1, 'bottom'), (3, 2, 'bottom'), (4, 3, 'bottom')])"
p1284
(dp1285
g38
F-0.5
sg9
F-0.5
sg26
F0.5
sg11
F-0.5
sg22
F-0.5
ssS"(['90.0::0.0', '90.0::0.0', '90.0::90.0', '0.0::0.0', '0.0::0.0'], [(1, 0, 'bottom'), (2, 1, 'bottom'), (3, 2, 'bottom'), (4, 3, 'bottom')])"
p1286
(dp1287
g36
F0.5
sg43
F-0.5
ssS"(['-90.0::0.0', '0.0::90.0', '-90.0::90.0', '-90.0::0.0', '0.0::0.0'], [(1, 0, 'bottom'), (2, 1, 'bottom'), (3, 2, 'bottom'), (4, 3, 'bottom')])"
p1288
(dp1289
g14
F0.5
sg23
F0.5
ssS"(['-90.0::0.0', '0.0::0.0', '90.0::90.0', '0.0::-90.0', '-90.0::90.0'], [(0, 4, 'bottom'), (1, 0, 'bottom'), (2, 1, 'bottom'), (3, 2, 'bottom'), (4, 3, 'bottom')])"
p1290
(dp1291
g13
F-0.5
ssS"(['-90.0::0.0', '0.0::-90.0', '-90.0::90.0', '0.0::90.0', '0.0::90.0'], [(1, 0, 'bottom'), (2, 1, 'bottom'), (3, 2, 'bottom'), (4, 3, 'bottom')])"
p1292
(dp1293
g38
F-0.5
sg15
F-0.75
sg22
F0.5
ssS"(['-90.0::0.0', '0.0::90.0', '0.0::90.0', '-90.0::0.0', '-90.0::90.0'], [(0, 4, 'bottom'), (1, 0, 'bottom'), (2, 1, 'bottom'), (3, 2, 'bottom'), (4, 3, 'bottom')])"
p1294
(dp1295
g41
F-0.5
ssS"(['-90.0::0.0', '-90.0::90.0', '0.0::0.0', '0.0::0.0', '0.0::0.0'], [(1, 0, 'bottom'), (2, 1, 'bottom'), (3, 2, 'bottom'), (4, 3, 'bottom')])"
p1296
(dp1297
g18
F-0.5
sg19
F-0.5
sg28
F-0.5
ssS"(['-90.0::0.0', '0.0::90.0', '0.0::90.0', '0.0::0.0', '-90.0::90.0'], [(1, 0, 'bottom'), (2, 1, 'bottom'), (3, 2, 'bottom'), (4, 3, 'bottom')])"
p1298
(dp1299
g19
F-0.3125
sg39
F-0.25
sg21
F0.9375
sg37
F-0.5
sg42
F-0.5
sg30
F-0.5
sg31
F-0.5
sg32
F-0.25
sg35
F-0.25
sg36
F-0.25
sg43
F-0.25
sg17
F-0.5
ssS"(['-90.0::-90.0', '90.0::0.0', '90.0::0.0', '90.0::0.0', '90.0::90.0'], [(0, 4, 'bottom'), (1, 0, 'bottom'), (2, 1, 'bottom'), (3, 2, 'bottom'), (4, 3, 'bottom')])"
p1300
(dp1301
g12
F-0.5
sg21
F-0.5
sg10
F-0.875
ssS"(['-90.0::90.0', '0.0::90.0', '90.0::0.0', '0.0::0.0', '-90.0::90.0'], [(0, 4, 'bottom'), (1, 0, 'bottom'), (2, 1, 'bottom'), (3, 2, 'bottom'), (4, 3, 'bottom')])"
p1302
(dp1303
g26
F-0.5
sg20
F-0.5
ssS"(['-90.0::0.0', '0.0::90.0', '0.0::0.0', '-90.0::0.0', '-90.0::90.0'], [(0, 4, 'bottom'), (1, 0, 'bottom'), (2, 1, 'bottom'), (3, 2, 'bottom'), (4, 3, 'bottom')])"
p1304
(dp1305
g18
F0.5
ssS"(['-90.0::0.0', '0.0::0.0', '90.0::90.0', '0.0::0.0', '-90.0::0.0'], [(0, 4, 'bottom'), (1, 0, 'bottom'), (2, 1, 'bottom'), (3, 2, 'bottom'), (4, 3, 'bottom')])"
p1306
(dp1307
g22
F-0.5
sg9
F-0.5
sg19
F-0.5
ssS"(['-90.0::0.0', '0.0::90.0', '0.0::90.0', '-90.0::0.0', '-90.0::0.0'], [(1, 0, 'bottom'), (2, 1, 'bottom'), (3, 2, 'bottom'), (4, 3, 'bottom')])"
p1308
(dp1309
g20
F-0.5
sg21
F0.5
sg29
F-0.5
sg16
F-0.5
sg22
F-0.5
sg25
F-0.5
sg42
F-0.5
ssS"(['-90.0::-90.0', '0.0::90.0', '0.0::90.0', '0.0::-90.0', '-90.0::0.0'], [(0, 4, 'bottom'), (1, 0, 'bottom'), (2, 1, 'bottom'), (3, 2, 'bottom'), (4, 3, 'bottom')])"
p1310
(dp1311
g29
F-0.5
ssS"(['-90.0::0.0', '-90.0::0.0', '90.0::90.0', '0.0::0.0', '0.0::0.0'], [(1, 0, 'bottom'), (2, 1, 'bottom'), (3, 2, 'bottom'), (4, 3, 'bottom')])"
p1312
(dp1313
g36
F-0.5
sg31
F-0.5
ssS"(['-90.0::-90.0', '0.0::-90.0', '0.0::0.0', '0.0::0.0', '-90.0::0.0'], [(1, 0, 'bottom'), (2, 1, 'bottom'), (3, 2, 'bottom'), (4, 3, 'bottom')])"
p1314
(dp1315
g21
F0.5
ssS"(['-90.0::0.0', '90.0::90.0', '-90.0::90.0', '0.0::-90.0', '-90.0::0.0'], [(0, 4, 'bottom'), (1, 0, 'bottom'), (2, 1, 'bottom'), (3, 2, 'bottom'), (4, 3, 'bottom')])"
p1316
(dp1317
g36
F-0.5
sg17
F-0.5
ssS"(['0.0::-90.0', '0.0::-90.0', '90.0::90.0', '-90.0::0.0', '0.0::-90.0'], [(1, 0, 'bottom'), (2, 1, 'bottom'), (3, 2, 'bottom'), (4, 3, 'bottom')])"
p1318
(dp1319
g40
F0.5
ssS"(['0.0::-90.0', '-90.0::0.0', '-90.0::90.0', '0.0::0.0', '90.0::90.0'], [(1, 0, 'bottom'), (2, 1, 'bottom'), (3, 2, 'bottom'), (4, 3, 'bottom')])"
p1320
(dp1321
g10
F0.5
ssS"(['-90.0::90.0', '0.0::0.0', '0.0::0.0', '0.0::0.0', '-90.0::0.0'], [(1, 0, 'bottom'), (2, 1, 'bottom'), (3, 2, 'bottom'), (4, 3, 'bottom')])"
p1322
(dp1323
g18
F-0.5
sg19
F-0.5
sg29
F-0.5
sg16
F-0.5
ssS"(['0.0::0.0', '0.0::90.0', '0.0::90.0', '0.0::0.0', '0.0::-90.0'], [(0, 4, 'bottom'), (1, 0, 'bottom'), (2, 1, 'bottom'), (3, 2, 'bottom'), (4, 3, 'bottom')])"
p1324
(dp1325
g42
F-0.5
sg11
F-0.5
sg12
F-0.5
ssS"(['-90.0::90.0', '0.0::0.0', '0.0::90.0', '0.0::0.0', '-90.0::0.0'], [(0, 4, 'bottom'), (1, 0, 'bottom'), (2, 1, 'bottom'), (3, 2, 'bottom'), (4, 3, 'bottom')])"
p1326
(dp1327
g27
F-0.5
ssS"(['-90.0::-90.0', '0.0::-90.0', '0.0::90.0', '0.0::0.0', '0.0::-90.0'], [(0, 4, 'bottom'), (1, 0, 'bottom'), (2, 1, 'bottom'), (3, 2, 'bottom'), (4, 3, 'bottom')])"
p1328
(dp1329
g10
F-0.5
ssS"(['-90.0::0.0', '0.0::90.0', '0.0::90.0', '0.0::0.0', '-90.0::-90.0'], [(0, 4, 'bottom'), (1, 0, 'bottom'), (2, 1, 'bottom'), (3, 2, 'bottom'), (4, 3, 'bottom')])"
p1330
(dp1331
g22
F-0.154541015625
sg39
F2.9426834364331005
sg32
F0.94576478983564716
sg33
F0.15683052733947989
sg14
F-0.5
ssS"(['-90.0::90.0', '0.0::90.0', '-90.0::90.0', '90.0::0.0', '-90.0::0.0'], [(0, 4, 'bottom'), (1, 0, 'bottom'), (2, 1, 'bottom'), (3, 2, 'bottom'), (4, 3, 'bottom')])"
p1332
(dp1333
g25
F-0.5
ssS"(['-90.0::90.0', '0.0::0.0', '-90.0::90.0', '-90.0::-90.0', '-90.0::90.0'], [(1, 0, 'bottom'), (2, 1, 'bottom'), (3, 2, 'bottom'), (4, 3, 'bottom')])"
p1334
(dp1335
g42
F-0.5
sg24
F-0.5
ssS"(['-90.0::-90.0', '0.0::0.0', '0.0::0.0', '0.0::0.0', '0.0::0.0'], [(1, 0, 'bottom'), (2, 1, 'bottom'), (3, 2, 'bottom'), (4, 3, 'bottom')])"
p1336
(dp1337
g38
F-0.5
sg32
F-0.5
ssS"(['0.0::0.0', '0.0::0.0', '90.0::-90.0', '-90.0::-90.0', '0.0::0.0'], [(1, 0, 'bottom'), (2, 1, 'bottom'), (3, 2, 'bottom'), (4, 3, 'bottom')])"
p1338
(dp1339
g39
F-0.5
sg20
F-0.5
ssS"(['-90.0::0.0', '0.0::0.0', '0.0::0.0', '0.0::0.0', '-90.0::0.0'], [(1, 0, 'bottom'), (2, 1, 'bottom'), (3, 2, 'bottom'), (4, 3, 'bottom')])"
p1340
(dp1341
g9
F0.42578125
sg10
F-0.5
sg11
F-0.2578125
sg29
F-0.75
sg13
F-0.5
sg14
F-0.5
sg40
F-0.5
sg17
F-0.875
sg18
F-0.015625
sg20
F-0.5
sg21
F0.99609375
sg22
F-0.75
sg23
F-0.625
sg25
F-0.5
sg26
F1.9619140625
sg27
F-0.5
sg30
F-0.75
sg28
F-0.5
sg32
F-0.2578125
sg34
F-0.5
sg33
F-0.005859375
sg35
F-0.5
sg36
F0.6787109375
sg37
F-0.5
sg39
F-0.5
sg16
F-0.5
sg41
F-0.75
sg42
F-0.125
ssS"(['-90.0::0.0', '-90.0::0.0', '90.0::90.0', '-90.0::0.0', '0.0::0.0'], [(1, 0, 'bottom'), (2, 1, 'bottom'), (3, 2, 'bottom'), (4, 3, 'bottom')])"
p1342
(dp1343
g29
F-0.5
sg33
F-0.5
ssS"(['-90.0::0.0', '0.0::90.0', '0.0::90.0', '0.0::0.0', '0.0::90.0'], [(0, 4, 'bottom'), (1, 0, 'bottom'), (2, 1, 'bottom'), (3, 2, 'bottom'), (4, 3, 'bottom')])"
p1344
(dp1345
g41
F-0.5
ssS"(['-90.0::0.0', '-90.0::90.0', '0.0::90.0', '-90.0::-90.0', '0.0::0.0'], [(1, 0, 'bottom'), (2, 1, 'bottom'), (3, 2, 'bottom'), (4, 3, 'bottom')])"
p1346
(dp1347
g29
F-0.5
ssS"(['-90.0::0.0', '0.0::-90.0', '0.0::90.0', '-90.0::0.0', '-90.0::0.0'], [(1, 0, 'bottom'), (2, 1, 'bottom'), (3, 2, 'bottom'), (4, 3, 'bottom')])"
p1348
(dp1349
g41
F-0.5
ssS"(['-90.0::0.0', '0.0::-90.0', '0.0::90.0', '0.0::90.0', '-90.0::0.0'], [(1, 0, 'bottom'), (2, 1, 'bottom'), (3, 2, 'bottom'), (4, 3, 'bottom')])"
p1350
(dp1351
g17
F-0.5
ssS"(['-90.0::0.0', '0.0::-90.0', '-90.0::90.0', '0.0::0.0', '0.0::90.0'], [(1, 0, 'bottom'), (2, 1, 'bottom'), (3, 2, 'bottom'), (4, 3, 'bottom')])"
p1352
(dp1353
g25
F-0.5
ssS"(['-90.0::0.0', '0.0::0.0', '0.0::-90.0', '0.0::-90.0', '-90.0::0.0'], [(1, 0, 'bottom'), (2, 1, 'bottom'), (3, 2, 'bottom'), (4, 3, 'bottom')])"
p1354
(dp1355
g23
F-0.5
ssS"(['-90.0::90.0', '0.0::0.0', '0.0::-90.0', '90.0::0.0', '-90.0::90.0'], [(0, 4, 'bottom'), (1, 0, 'bottom'), (2, 1, 'bottom'), (3, 2, 'bottom'), (4, 3, 'bottom')])"
p1356
(dp1357
g18
F0.5
sg20
F-0.5
ssS"(['-90.0::0.0', '0.0::0.0', '90.0::90.0', '90.0::0.0', '-90.0::0.0'], [(1, 0, 'bottom'), (2, 1, 'bottom'), (3, 2, 'bottom'), (4, 3, 'bottom')])"
p1358
(dp1359
g15
F-0.5
sg25
F-0.5
ssS"(['-90.0::0.0', '90.0::90.0', '0.0::90.0', '0.0::90.0', '-90.0::0.0'], [(0, 4, 'bottom'), (1, 0, 'bottom'), (2, 1, 'bottom'), (3, 2, 'bottom'), (4, 3, 'bottom')])"
p1360
(dp1361
g20
F-0.5
sg21
F-0.5
sg12
F-0.5
sg30
F-0.5
sg32
F-0.5
sg16
F-0.5
sg43
F-0.5
ssS"(['-90.0::-90.0', '-90.0::-90.0', '90.0::-90.0', '-90.0::0.0', '-90.0::-90.0'], [(1, 0, 'bottom'), (2, 1, 'bottom'), (3, 2, 'bottom'), (4, 3, 'bottom')])"
p1362
(dp1363
g18
F-0.5
sg20
F-0.5
sg29
F-0.5
ssS"(['-90.0::0.0', '0.0::0.0', '0.0::90.0', '0.0::0.0', '0.0::-90.0'], [(1, 0, 'bottom'), (2, 1, 'bottom'), (3, 2, 'bottom'), (4, 3, 'bottom')])"
p1364
(dp1365
g36
F-0.5
sg22
F-0.5
sg25
F-0.5
sg21
F-0.5
ssS"(['-90.0::0.0', '0.0::0.0', '90.0::0.0', '0.0::0.0', '0.0::0.0'], [(1, 0, 'bottom'), (2, 1, 'bottom'), (3, 2, 'bottom'), (4, 3, 'bottom')])"
p1366
(dp1367
g27
F-0.5
sg15
F-0.5
sg20
F-0.5
sg28
F-0.5
sg32
F-0.5
sg16
F-0.5
sg41
F-0.5
sg42
F-0.5
sg43
F-0.5
ssS"(['0.0::90.0', '0.0::0.0', '-90.0::90.0', '0.0::0.0', '0.0::0.0'], [(1, 0, 'bottom'), (2, 1, 'bottom'), (3, 2, 'bottom'), (4, 3, 'bottom')])"
p1368
(dp1369
g28
F0.5
ssS"(['0.0::-90.0', '90.0::90.0', '-90.0::0.0', '0.0::0.0', '-90.0::-90.0'], [(0, 4, 'bottom'), (1, 0, 'bottom'), (2, 1, 'bottom'), (3, 2, 'bottom'), (4, 3, 'bottom')])"
p1370
(dp1371
g9
F-0.5
sg15
F-0.5
sg12
F-0.5
sg34
F-0.5
ssS"(['-90.0::90.0', '0.0::90.0', '-90.0::0.0', '-90.0::0.0', '-90.0::0.0'], [(1, 0, 'bottom'), (2, 1, 'bottom'), (3, 2, 'bottom'), (4, 3, 'bottom')])"
p1372
(dp1373
g16
F-0.5
ssS"(['-90.0::0.0', '0.0::0.0', '0.0::90.0', '0.0::90.0', '-90.0::0.0'], [(1, 0, 'bottom'), (2, 1, 'bottom'), (3, 2, 'bottom'), (4, 3, 'bottom')])"
p1374
(dp1375
g20
F-0.125
sg26
F0.875
sg29
F-0.5
sg13
F-0.5
sg40
F-0.5
ssS"(['-90.0::0.0', '90.0::90.0', '0.0::90.0', '0.0::0.0', '0.0::90.0'], [(1, 0, 'bottom'), (2, 1, 'bottom'), (3, 2, 'bottom'), (4, 3, 'bottom')])"
p1376
(dp1377
g41
F0.5
ssS"(['90.0::0.0', '0.0::90.0', '0.0::90.0', '-90.0::90.0', '-90.0::0.0'], [(1, 0, 'bottom'), (2, 1, 'bottom'), (3, 2, 'bottom'), (4, 3, 'bottom')])"
p1378
(dp1379
g16
F0.5
ssS"(['0.0::0.0', '0.0::90.0', '0.0::90.0', '0.0::0.0', '0.0::0.0'], [(0, 4, 'bottom'), (1, 0, 'bottom'), (2, 1, 'bottom'), (3, 2, 'bottom'), (4, 3, 'bottom')])"
p1380
(dp1381
g29
F-0.5
ssS"(['-90.0::0.0', '0.0::0.0', '0.0::90.0', '90.0::0.0', '-90.0::0.0'], [(0, 4, 'bottom'), (1, 0, 'bottom'), (2, 1, 'bottom'), (3, 2, 'bottom'), (4, 3, 'bottom')])"
p1382
(dp1383
g30
F-0.5
sg23
F-0.5
sg33
F-0.5
ssS"(['-90.0::0.0', '-90.0::90.0', '0.0::-90.0', '0.0::0.0', '0.0::0.0'], [(1, 0, 'bottom'), (2, 1, 'bottom'), (3, 2, 'bottom'), (4, 3, 'bottom')])"
p1384
(dp1385
g26
F0.5
ssS"(['90.0::-90.0', '-90.0::0.0', '90.0::-90.0', '0.0::0.0', '-90.0::-90.0'], [(1, 0, 'bottom'), (2, 1, 'bottom'), (3, 2, 'bottom'), (4, 3, 'bottom')])"
p1386
(dp1387
g19
F-0.5
ssS"(['0.0::0.0', '-90.0::90.0', '-90.0::90.0', '0.0::0.0', '90.0::90.0'], [(1, 0, 'bottom'), (2, 1, 'bottom'), (3, 2, 'bottom'), (4, 3, 'bottom')])"
p1388
(dp1389
g17
F-0.5
ssS"(['0.0::90.0', '0.0::0.0', '-90.0::90.0', '-90.0::0.0', '0.0::90.0'], [(1, 0, 'bottom'), (2, 1, 'bottom'), (3, 2, 'bottom'), (4, 3, 'bottom')])"
p1390
(dp1391
g36
F-0.25
sg14
F0.5
sg40
F-0.5
ssS"(['-90.0::0.0', '0.0::0.0', '0.0::0.0', '90.0::0.0', '0.0::0.0'], [(1, 0, 'bottom'), (2, 1, 'bottom'), (3, 2, 'bottom'), (4, 3, 'bottom')])"
p1392
(dp1393
g25
F-0.5
sg37
F-0.5
ssS"(['-90.0::0.0', '-90.0::90.0', '0.0::90.0', '-90.0::0.0', '-90.0::-90.0'], [(0, 4, 'bottom'), (1, 0, 'bottom'), (2, 1, 'bottom'), (3, 2, 'bottom'), (4, 3, 'bottom')])"
p1394
(dp1395
g30
F-0.5
ssS"(['-90.0::90.0', '0.0::0.0', '0.0::90.0', '-90.0::-90.0', '-90.0::90.0'], [(1, 0, 'bottom'), (2, 1, 'bottom'), (3, 2, 'bottom'), (4, 3, 'bottom')])"
p1396
(dp1397
g40
F-0.5
ssS"(['-90.0::-90.0', '0.0::-90.0', '-90.0::90.0', '0.0::90.0', '-90.0::0.0'], [(1, 0, 'bottom'), (2, 1, 'bottom'), (3, 2, 'bottom'), (4, 3, 'bottom')])"
p1398
(dp1399
g18
F-0.5
sg11
F-0.5
sg39
F-0.5
sg33
F-0.5
sg13
F-0.5
sg42
F-0.5
ssS"(['-90.0::90.0', '0.0::90.0', '90.0::0.0', '90.0::0.0', '-90.0::90.0'], [(1, 0, 'bottom'), (2, 1, 'bottom'), (3, 2, 'bottom'), (4, 3, 'bottom')])"
p1400
(dp1401
g31
F0.5
ssS"(['0.0::-90.0', '0.0::0.0', '0.0::90.0', '0.0::90.0', '-90.0::0.0'], [(1, 0, 'bottom'), (2, 1, 'bottom'), (3, 2, 'bottom'), (4, 3, 'bottom')])"
p1402
(dp1403
g19
F-0.5
ssS"(['-90.0::0.0', '0.0::0.0', '90.0::0.0', '0.0::-90.0', '0.0::0.0'], [(1, 0, 'bottom'), (2, 1, 'bottom'), (3, 2, 'bottom'), (4, 3, 'bottom')])"
p1404
(dp1405
g22
F-0.5
sg37
F-0.5
ssS"(['0.0::-90.0', '0.0::90.0', '0.0::90.0', '0.0::0.0', '-90.0::90.0'], [(0, 4, 'bottom'), (1, 0, 'bottom'), (2, 1, 'bottom'), (3, 2, 'bottom'), (4, 3, 'bottom')])"
p1406
(dp1407
g11
F-0.5
sg19
F-0.5
sg16
F-0.5
ssS"(['-90.0::0.0', '0.0::90.0', '-90.0::90.0', '90.0::0.0', '-90.0::90.0'], [(0, 4, 'bottom'), (1, 0, 'bottom'), (2, 1, 'bottom'), (3, 2, 'bottom'), (4, 3, 'bottom')])"
p1408
(dp1409
g30
F-0.5
sg34
F-0.5
ssS"(['-90.0::-90.0', '0.0::90.0', '-90.0::90.0', '0.0::0.0', '-90.0::0.0'], [(0, 4, 'bottom'), (1, 0, 'bottom'), (2, 1, 'bottom'), (3, 2, 'bottom'), (4, 3, 'bottom')])"
p1410
(dp1411
g26
F-0.5
sg12
F-0.5
ssS"(['-90.0::90.0', '90.0::90.0', '90.0::90.0', '0.0::0.0', '-90.0::0.0'], [(0, 4, 'bottom'), (1, 0, 'bottom'), (2, 1, 'bottom'), (3, 2, 'bottom'), (4, 3, 'bottom')])"
p1412
(dp1413
g13
F-0.5
ssS"(['-90.0::0.0', '0.0::90.0', '90.0::90.0', '-90.0::0.0', '-90.0::-90.0'], [(0, 4, 'bottom'), (1, 0, 'bottom'), (2, 1, 'bottom'), (3, 2, 'bottom'), (4, 3, 'bottom')])"
p1414
(dp1415
g9
F-0.5
sg43
F-0.5
sg41
F-0.5
sg31
F-0.5
ssS"(['0.0::90.0', '-90.0::0.0', '0.0::90.0', '0.0::90.0', '0.0::0.0'], [(1, 0, 'bottom'), (2, 1, 'bottom'), (3, 2, 'bottom'), (4, 3, 'bottom')])"
p1416
(dp1417
g14
F-0.5
ssS"(['-90.0::90.0', '0.0::90.0', '0.0::90.0', '90.0::0.0', '-90.0::90.0'], [(1, 0, 'bottom'), (2, 1, 'bottom'), (3, 2, 'bottom'), (4, 3, 'bottom')])"
p1418
(dp1419
g14
F-0.5
sg28
F0.5
sg21
F0.5
ssS"(['-90.0::0.0', '-90.0::90.0', '-90.0::90.0', '0.0::-90.0', '90.0::90.0'], [(1, 0, 'bottom'), (2, 1, 'bottom'), (3, 2, 'bottom'), (4, 3, 'bottom')])"
p1420
(dp1421
g26
F0.5
sg13
F-0.5
ssS"(['-90.0::90.0', '-90.0::90.0', '0.0::90.0', '90.0::90.0', '-90.0::-90.0'], [(0, 4, 'bottom'), (1, 0, 'bottom'), (2, 1, 'bottom'), (3, 2, 'bottom'), (4, 3, 'bottom')])"
p1422
(dp1423
g36
F-0.5
sg11
F-0.5
sg28
F-0.5
sg15
F-0.5
ssS"(['-90.0::0.0', '0.0::90.0', '0.0::90.0', '-90.0::0.0', '0.0::0.0'], [(0, 4, 'bottom'), (1, 0, 'bottom'), (2, 1, 'bottom'), (3, 2, 'bottom'), (4, 3, 'bottom')])"
p1424
(dp1425
g21
F-0.5
ssS"(['-90.0::90.0', '-90.0::0.0', '0.0::-90.0', '90.0::0.0', '-90.0::90.0'], [(1, 0, 'bottom'), (2, 1, 'bottom'), (3, 2, 'bottom'), (4, 3, 'bottom')])"
p1426
(dp1427
g26
F0.5
ssS"(['-90.0::0.0', '0.0::90.0', '0.0::0.0', '-90.0::0.0', '90.0::90.0'], [(1, 0, 'bottom'), (2, 1, 'bottom'), (3, 2, 'bottom'), (4, 3, 'bottom')])"
p1428
(dp1429
g39
F-0.5
sg41
F-0.5
sg13
F-0.5
ssS"(['-90.0::-90.0', '0.0::0.0', '-90.0::90.0', '-90.0::-90.0', '-90.0::90.0'], [(0, 4, 'bottom'), (1, 0, 'bottom'), (2, 1, 'bottom'), (3, 2, 'bottom'), (4, 3, 'bottom')])"
p1430
(dp1431
g34
F-0.5
ssS"(['90.0::90.0', '0.0::0.0', '-90.0::0.0', '0.0::0.0', '90.0::90.0'], [(1, 0, 'bottom'), (2, 1, 'bottom'), (3, 2, 'bottom'), (4, 3, 'bottom')])"
p1432
(dp1433
g38
F-0.5
sg9
F-0.5
ssS"(['0.0::-90.0', '0.0::0.0', '0.0::90.0', '0.0::0.0', '0.0::90.0'], [(1, 0, 'bottom'), (2, 1, 'bottom'), (3, 2, 'bottom'), (4, 3, 'bottom')])"
p1434
(dp1435
g34
F-0.5
ssS"(['-90.0::0.0', '90.0::0.0', '0.0::90.0', '-90.0::0.0', '-90.0::90.0'], [(1, 0, 'bottom'), (2, 1, 'bottom'), (3, 2, 'bottom'), (4, 3, 'bottom')])"
p1436
(dp1437
g26
F0.5
sg32
F-0.5
ssS"(['-90.0::90.0', '0.0::90.0', '90.0::90.0', '90.0::-90.0', '-90.0::90.0'], [(0, 4, 'bottom'), (1, 0, 'bottom'), (2, 1, 'bottom'), (3, 2, 'bottom'), (4, 3, 'bottom')])"
p1438
(dp1439
g31
F-0.5
ssS"(['-90.0::0.0', '0.0::90.0', '0.0::90.0', '0.0::0.0', '0.0::-90.0'], [(0, 4, 'bottom'), (1, 0, 'bottom'), (2, 1, 'bottom'), (3, 2, 'bottom'), (4, 3, 'bottom')])"
p1440
(dp1441
g36
F-0.5
sg35
F-0.5
sg20
F-0.5
sg18
F0.5
ssS"(['0.0::0.0', '0.0::90.0', '0.0::90.0', '90.0::0.0', '-90.0::90.0'], [(0, 4, 'bottom'), (1, 0, 'bottom'), (2, 1, 'bottom'), (3, 2, 'bottom'), (4, 3, 'bottom')])"
p1442
(dp1443
g24
F-0.5
ssS"(['-90.0::-90.0', '0.0::90.0', '0.0::90.0', '0.0::90.0', '0.0::90.0'], [(0, 4, 'bottom'), (1, 0, 'bottom'), (2, 1, 'bottom'), (3, 2, 'bottom'), (4, 3, 'bottom')])"
p1444
(dp1445
g23
F-0.5
ssS"(['-90.0::0.0', '-90.0::0.0', '0.0::90.0', '90.0::90.0', '0.0::-90.0'], [(1, 0, 'bottom'), (2, 1, 'bottom'), (3, 2, 'bottom'), (4, 3, 'bottom')])"
p1446
(dp1447
g39
F0.5
ssS"(['90.0::0.0', '0.0::0.0', '0.0::90.0', '0.0::0.0', '90.0::0.0'], [(1, 0, 'bottom'), (2, 1, 'bottom'), (3, 2, 'bottom'), (4, 3, 'bottom')])"
p1448
(dp1449
g20
F-0.5
sg34
F-0.5
ssS"(['90.0::-90.0', '-90.0::90.0', '90.0::-90.0', '0.0::90.0', '-90.0::-90.0'], [(1, 0, 'bottom'), (2, 1, 'bottom'), (3, 2, 'bottom'), (4, 3, 'bottom')])"
p1450
(dp1451
g31
F-0.5
ssS"(['-90.0::-90.0', '0.0::0.0', '0.0::90.0', '0.0::-90.0', '-90.0::-90.0'], [(0, 4, 'bottom'), (1, 0, 'bottom'), (2, 1, 'bottom'), (3, 2, 'bottom'), (4, 3, 'bottom')])"
p1452
(dp1453
g25
F-0.5
ssS"(['-90.0::-90.0', '90.0::90.0', '0.0::0.0', '0.0::0.0', '0.0::-90.0'], [(1, 0, 'bottom'), (2, 1, 'bottom'), (3, 2, 'bottom'), (4, 3, 'bottom')])"
p1454
(dp1455
g9
F-0.5
sg34
F-0.5
ssS"(['-90.0::0.0', '0.0::90.0', '0.0::0.0', '0.0::0.0', '0.0::0.0'], [(1, 0, 'bottom'), (2, 1, 'bottom'), (3, 2, 'bottom'), (4, 3, 'bottom')])"
p1456
(dp1457
g25
F-0.5
ssS"(['-90.0::90.0', '0.0::90.0', '-90.0::90.0', '0.0::-90.0', '-90.0::0.0'], [(0, 4, 'bottom'), (1, 0, 'bottom'), (2, 1, 'bottom'), (3, 2, 'bottom'), (4, 3, 'bottom')])"
p1458
(dp1459
g9
F-0.5
sg31
F-0.5
sg16
F-0.5
ssS"(['-90.0::90.0', '90.0::90.0', '-90.0::90.0', '0.0::-90.0', '-90.0::0.0'], [(0, 4, 'bottom'), (1, 0, 'bottom'), (2, 1, 'bottom'), (3, 2, 'bottom'), (4, 3, 'bottom')])"
p1460
(dp1461
g24
F-0.5
ssS"(['-90.0::90.0', '0.0::90.0', '-90.0::90.0', '0.0::90.0', '90.0::0.0'], [(1, 0, 'bottom'), (2, 1, 'bottom'), (3, 2, 'bottom'), (4, 3, 'bottom')])"
p1462
(dp1463
g18
F-0.5
sg15
F-0.5
sg20
F-0.5
sg30
F-0.5
sg32
F-0.5
sg33
F-0.5
sg42
F-0.5
ssS"(['0.0::0.0', '0.0::0.0', '0.0::90.0', '0.0::0.0', '-90.0::0.0'], [(1, 0, 'bottom'), (2, 1, 'bottom'), (3, 2, 'bottom'), (4, 3, 'bottom')])"
p1464
(dp1465
g35
F-0.25
sg21
F0.75
sg10
F-0.5
ssS"(['-90.0::0.0', '0.0::90.0', '0.0::90.0', '-90.0::0.0', '-90.0::90.0'], [(1, 0, 'bottom'), (2, 1, 'bottom'), (3, 2, 'bottom'), (4, 3, 'bottom')])"
p1466
(dp1467
g28
F0.5
sg15
F-0.5
sg43
F-0.5
ssS"(['0.0::90.0', '0.0::90.0', '90.0::0.0', '0.0::0.0', '-90.0::90.0'], [(0, 4, 'bottom'), (1, 0, 'bottom'), (2, 1, 'bottom'), (3, 2, 'bottom'), (4, 3, 'bottom')])"
p1468
(dp1469
g18
F0.5
ssS"(['0.0::0.0', '0.0::0.0', '-90.0::90.0', '0.0::0.0', '-90.0::0.0'], [(0, 4, 'bottom'), (1, 0, 'bottom'), (2, 1, 'bottom'), (3, 2, 'bottom'), (4, 3, 'bottom')])"
p1470
(dp1471
g36
F-0.5
sg9
F-0.5
sg13
F-0.5
ssS"(['-90.0::0.0', '0.0::90.0', '0.0::-90.0', '0.0::-90.0', '-90.0::90.0'], [(0, 4, 'bottom'), (1, 0, 'bottom'), (2, 1, 'bottom'), (3, 2, 'bottom'), (4, 3, 'bottom')])"
p1472
(dp1473
g29
F-0.5
ssS"(['90.0::90.0', '0.0::0.0', '-90.0::0.0', '0.0::0.0', '0.0::90.0'], [(1, 0, 'bottom'), (2, 1, 'bottom'), (3, 2, 'bottom'), (4, 3, 'bottom')])"
p1474
(dp1475
g21
F-0.5
ssS"(['90.0::0.0', '90.0::0.0', '0.0::90.0', '0.0::0.0', '0.0::0.0'], [(1, 0, 'bottom'), (2, 1, 'bottom'), (3, 2, 'bottom'), (4, 3, 'bottom')])"
p1476
(dp1477
g18
F-0.5
sg23
F-0.5
ssS"(['-90.0::0.0', '90.0::90.0', '0.0::90.0', '90.0::-90.0', '-90.0::0.0'], [(0, 4, 'bottom'), (1, 0, 'bottom'), (2, 1, 'bottom'), (3, 2, 'bottom'), (4, 3, 'bottom')])"
p1478
(dp1479
g25
F-0.5
sg15
F-0.5
sg32
F-0.5
sg31
F-0.5
sg43
F-0.5
ssS"(['-90.0::0.0', '0.0::90.0', '0.0::0.0', '0.0::-90.0', '-90.0::0.0'], [(1, 0, 'bottom'), (2, 1, 'bottom'), (3, 2, 'bottom'), (4, 3, 'bottom')])"
p1480
(dp1481
g24
F-0.5
ssS"(['-90.0::-90.0', '0.0::-90.0', '-90.0::90.0', '90.0::90.0', '-90.0::0.0'], [(1, 0, 'bottom'), (2, 1, 'bottom'), (3, 2, 'bottom'), (4, 3, 'bottom')])"
p1482
(dp1483
g31
F0.5
ssS"(['0.0::0.0', '0.0::90.0', '0.0::0.0', '-90.0::0.0', '-90.0::0.0'], [(0, 4, 'bottom'), (1, 0, 'bottom'), (2, 1, 'bottom'), (3, 2, 'bottom'), (4, 3, 'bottom')])"
p1484
(dp1485
g36
F-0.5
ssS"(['0.0::-90.0', '0.0::0.0', '-90.0::90.0', '0.0::0.0', '-90.0::0.0'], [(0, 4, 'bottom'), (1, 0, 'bottom'), (2, 1, 'bottom'), (3, 2, 'bottom'), (4, 3, 'bottom')])"
p1486
(dp1487
g16
F-0.5
ssS"(['-90.0::0.0', '0.0::0.0', '0.0::90.0', '-90.0::-90.0', '-90.0::0.0'], [(1, 0, 'bottom'), (2, 1, 'bottom'), (3, 2, 'bottom'), (4, 3, 'bottom')])"
p1488
(dp1489
g17
F-0.5
ssS"(['-90.0::0.0', '0.0::-90.0', '-90.0::90.0', '0.0::90.0', '0.0::0.0'], [(1, 0, 'bottom'), (2, 1, 'bottom'), (3, 2, 'bottom'), (4, 3, 'bottom')])"
p1490
(dp1491
g27
F-0.5
sg42
F-0.5
sg17
F-0.5
ssS"(['0.0::0.0', '90.0::0.0', '0.0::90.0', '0.0::0.0', '-90.0::-90.0'], [(0, 4, 'bottom'), (1, 0, 'bottom'), (2, 1, 'bottom'), (3, 2, 'bottom'), (4, 3, 'bottom')])"
p1492
(dp1493
g22
F-0.5
sg34
F-0.5
ssS"(['-90.0::0.0', '0.0::90.0', '0.0::90.0', '0.0::90.0', '-90.0::-90.0'], [(1, 0, 'bottom'), (2, 1, 'bottom'), (3, 2, 'bottom'), (4, 3, 'bottom')])"
p1494
(dp1495
g30
F-0.5
ssS"(['-90.0::-90.0', '90.0::0.0', '90.0::90.0', '90.0::0.0', '90.0::90.0'], [(0, 4, 'bottom'), (1, 0, 'bottom'), (2, 1, 'bottom'), (3, 2, 'bottom'), (4, 3, 'bottom')])"
p1496
(dp1497
g42
F-0.5
sg28
F-0.5
ssS"(['-90.0::0.0', '-90.0::0.0', '90.0::0.0', '0.0::0.0', '-90.0::0.0'], [(1, 0, 'bottom'), (2, 1, 'bottom'), (3, 2, 'bottom'), (4, 3, 'bottom')])"
p1498
(dp1499
g27
F-0.5
sg11
F-0.5
ssS"(['-90.0::0.0', '0.0::90.0', '0.0::0.0', '0.0::0.0', '-90.0::90.0'], [(0, 4, 'bottom'), (1, 0, 'bottom'), (2, 1, 'bottom'), (3, 2, 'bottom'), (4, 3, 'bottom')])"
p1500
(dp1501
g15
F-0.5
sg11
F-0.75
sg31
F-0.5
sg33
F-0.5
sg40
F-0.5
sg36
F-0.75
sg26
F-0.5
ssS"(['-90.0::90.0', '0.0::-90.0', '-90.0::0.0', '-90.0::-90.0', '-90.0::0.0'], [(1, 0, 'bottom'), (2, 1, 'bottom'), (3, 2, 'bottom'), (4, 3, 'bottom')])"
p1502
(dp1503
g25
F0.5
sg40
F-0.5
sg16
F-0.5
ssS"(['0.0::-90.0', '0.0::0.0', '-90.0::90.0', '0.0::-90.0', '-90.0::0.0'], [(0, 4, 'bottom'), (1, 0, 'bottom'), (2, 1, 'bottom'), (3, 2, 'bottom'), (4, 3, 'bottom')])"
p1504
(dp1505
g19
F-0.5
ssS"(['-90.0::-90.0', '90.0::90.0', '0.0::90.0', '0.0::0.0', '-90.0::0.0'], [(0, 4, 'bottom'), (1, 0, 'bottom'), (2, 1, 'bottom'), (3, 2, 'bottom'), (4, 3, 'bottom')])"
p1506
(dp1507
g38
F-0.5
sg19
F-0.5
sg35
F-0.5
sg30
F-0.5
sg18
F0.5
ssS"(['-90.0::0.0', '0.0::0.0', '0.0::0.0', '0.0::0.0', '0.0::0.0'], [(1, 0, 'bottom'), (2, 1, 'bottom'), (3, 2, 'bottom'), (4, 3, 'bottom')])"
p1508
(dp1509
g27
F-0.5
sg9
F-0.75
sg14
F-0.5
sg31
F-0.5
sg29
F-0.5
sg13
F-0.5
sg40
F-0.5
sg38
F-0.5
sg23
F-0.5
sg42
F-0.5
sssS'actions'
p1510
(lp1511
g26
ag36
ag17
ag13
ag10
ag41
ag19
ag27
ag23
ag40
ag38
ag28
ag14
ag31
ag25
ag16
ag21
ag12
ag39
ag22
ag18
ag9
ag20
ag29
ag35
ag33
ag24
ag32
ag11
ag30
ag43
ag15
ag34
ag37
ag42
asb.