ccopy_reg
_reconstructor
p1
(cmrsim.brain
ActionValueFunction
p2
c__builtin__
object
p3
NtRp4
(dp5
S'default'
p6
I0
sS'_defaultActions'
p7
(dp8
S'1|P|-90'
p9
I0
sS'1|P|+90'
p10
I0
sS'1|A|+90'
p11
I0
sS'2|P|-90'
p12
I0
sS'0|P|-90'
p13
I0
sS'2|A|-90'
p14
I0
sS'2|P|+90'
p15
I0
sS'2|A|+90'
p16
I0
sS'1|A|-90'
p17
I0
sS'0|A|-90'
p18
I0
sS'0|A|+90'
p19
I0
sS'0|P|+90'
p20
I0
ssS'_data'
p21
(dp22
S"['-90.0::-90.0', '90.0::90.0', '90.0::-90.0']"
p23
(dp24
g15
F0.053741455078125
sS'1|A|-90'
p25
F0.081298828125
sS'1|A|+90'
p26
F0.027099609375
ssS"['-90.0::-90.0', '90.0::90.0', '90.0::0.0']"
p27
(dp28
S'2|P|+90'
p29
F0.160186767578125
ssS"['-90.0::-90.0', '-90.0::-90.0', '90.0::0.0']"
p30
(dp31
g10
F0.2265625
ssS"['0.0::-90.0', '-90.0::0.0', '90.0::90.0']"
p32
(dp33
S'1|A|+90'
p34
F0.115234375
ssS"['90.0::-90.0', '0.0::90.0', '-90.0::0.0']"
p35
(dp36
S'2|P|-90'
p37
F0.0078125
ssS"['0.0::-90.0', '90.0::90.0', '90.0::90.0']"
p38
(dp39
S'0|A|-90'
p40
F0.0716552734375
sS'1|P|+90'
p41
F0.05224609375
sg25
F0.234375
ssS"['0.0::-90.0', '-90.0::0.0', '90.0::-90.0']"
p42
(dp43
S'1|P|+90'
p44
F0.984375
sg37
F0.46875
sS'2|P|+90'
p45
F0.28125
sg16
F0.484375
sS'1|A|-90'
p46
F0.46875
sS'0|A|+90'
p47
F0.21875
ssS"['-90.0::0.0', '0.0::90.0', '0.0::0.0']"
p48
(dp49
S'2|A|+90'
p50
F0.0361328125
sS'0|P|-90'
p51
F0.45111083984375
sS'2|A|-90'
p52
F0.015625
sS'1|A|+90'
p53
F0.0361328125
ssS"['0.0::-90.0', '90.0::90.0', '0.0::90.0']"
p54
(dp55
S'2|P|-90'
p56
F0.66028594970703125
sg53
F0.0234375
ssS"['0.0::-90.0', '90.0::90.0', '0.0::0.0']"
p57
(dp58
S'1|P|+90'
p59
F0.078125
sS'1|A|+90'
p60
F0.37451171875
sS'2|P|-90'
p61
F0.23945951461791992
sg45
F0.0234375
sS'2|A|+90'
p62
F0.179443359375
sS'1|A|-90'
p63
F0.91884994506835938
sS'0|A|-90'
p64
F0.28857421875
sS'0|P|+90'
p65
F0.42529296875
ssS"['-90.0::90.0', '-90.0::0.0', '0.0::-90.0']"
p66
(dp67
S'2|P|+90'
p68
F0.0010986328125
ssS"['0.0::0.0', '0.0::0.0', '-90.0::0.0']"
p69
(dp70
g19
F0.005859375
sS'2|A|+90'
p71
F0.20263671875
ssS"['-90.0::-90.0', '0.0::90.0', '90.0::-90.0']"
p72
(dp73
S'2|P|-90'
p74
F0.0361328125
sS'2|A|-90'
p75
F0.1083984375
sS'2|P|+90'
p76
F0.027099609375
sS'2|A|+90'
p77
F0.05419921875
sS'0|A|-90'
p78
F0.0361328125
sS'0|P|+90'
p79
F0.01806640625
ssS"['0.0::-90.0', '90.0::90.0', '0.0::-90.0']"
p80
(dp81
S'2|P|+90'
p82
F0.078125
sS'1|A|-90'
p83
F0.66073799133300781
sg11
F0.21016263961791992
ssS"['0.0::0.0', '0.0::0.0', '-90.0::90.0']"
p84
(dp85
S'1|P|+90'
p86
F0.0813751220703125
ssS"['90.0::0.0', '0.0::0.0', '-90.0::0.0']"
p87
(dp88
g40
F0.01171875
sg16
F0.18844127655029297
ssS"['-90.0::0.0', '0.0::90.0', '90.0::-90.0']"
p89
(dp90
g51
F0.0361328125
ssS"['-90.0::-90.0', '0.0::0.0', '0.0::0.0']"
p91
(dp92
S'0|A|+90'
p93
F0.77547955513000488
sg10
F0.42546844482421875
ssS"['-90.0::0.0', '0.0::90.0', '-90.0::0.0']"
p94
(dp95
g40
F0.015625
sS'0|A|+90'
p96
F0.03125
sS'2|A|+90'
p97
F0.261688232421875
sg75
F0.0234375
ssS"['0.0::0.0', '-90.0::-90.0', '0.0::-90.0']"
p98
(dp99
g53
F0.0654296875
ssS"['0.0::0.0', '-90.0::0.0', '90.0::90.0']"
p100
(dp101
g61
F0.0625
ssS"['0.0::0.0', '90.0::90.0', '90.0::0.0']"
p102
(dp103
S'2|A|-90'
p104
F0.0390625
ssS"['0.0::0.0', '0.0::-90.0', '0.0::0.0']"
p105
(dp106
S'1|P|-90'
p107
F0.130859375
sg64
F0.44357156753540039
sg86
F0.4456787109375
ssS"['0.0::-90.0', '0.0::90.0', '0.0::0.0']"
p108
(dp109
S'1|P|-90'
p110
F0.46360397338867188
sg59
F0.93929958343505859
sg60
F0.6434783935546875
sS'2|P|-90'
p111
F0.26729583740234375
sS'0|P|-90'
p112
F0.83959579467773438
sg75
F0.65486907958984375
sg76
F0.3564453125
sS'2|A|+90'
p113
F0.97268438339233398
sS'0|A|-90'
p114
F0.687347412109375
sS'0|P|+90'
p115
F0.66868972778320312
ssS"['0.0::-90.0', '90.0::0.0', '-90.0::0.0']"
p116
(dp117
g62
F0.48642539978027344
ssS"['0.0::-90.0', '0.0::90.0', '90.0::90.0']"
p118
(dp119
S'1|P|-90'
p120
F0.233489990234375
sg86
F0.18212890625
sS'1|A|+90'
p121
F0.0078125
sg51
F0.5002593994140625
sg104
F0.8033294677734375
sg76
F0.015625
sg77
F0.0966796875
sg40
F0.0140380859375
ssS"['-90.0::-90.0', '0.0::90.0', '0.0::90.0']"
p122
(dp123
g93
F0.33056640625
sg121
F0.165283203125
ssS"['0.0::0.0', '-90.0::0.0', '0.0::0.0']"
p124
(dp125
g10
F0.08953857421875
sS'1|A|+90'
p126
F0.358154296875
ssS"['0.0::90.0', '0.0::0.0', '-90.0::90.0']"
p127
(dp128
g10
F0.035884857177734375
ssS"['-90.0::-90.0', '90.0::0.0', '90.0::-90.0']"
p129
(dp130
S'1|P|+90'
p131
F0.05419921875
sg13
F0.0135498046875
ssS"['0.0::-90.0', '90.0::0.0', '90.0::0.0']"
p132
(dp133
g29
F0.0576171875
ssS"['0.0::-90.0', '0.0::0.0', '90.0::90.0']"
p134
(dp135
g41
F0.6185150146484375
sg93
F0.014404296875
sg34
F0.0576171875
ssS"['0.0::-90.0', '90.0::0.0', '0.0::0.0']"
p136
(dp137
S'1|P|-90'
p138
F0.0831298828125
sS'1|P|+90'
p139
F0.64856719970703125
sg53
F0.20626068115234375
ssS"['0.0::0.0', '-90.0::-90.0', '90.0::0.0']"
p140
(dp141
g86
F0.005859375
ssS"['-90.0::-90.0', '0.0::90.0', '90.0::90.0']"
p142
(dp143
g52
F0.028076171875
sg34
F0.026123046875
ssS"['-90.0::-90.0', '0.0::90.0', '0.0::-90.0']"
p144
(dp145
g76
F0.216796875
ssS"['-90.0::0.0', '0.0::90.0', '90.0::0.0']"
p146
(dp147
g52
F0.072265625
ssS"['-90.0::-90.0', '90.0::90.0', '90.0::90.0']"
p148
(dp149
g86
F0.10748291015625
sg26
F0.14227294921875
sS'0|P|-90'
p150
F0.10748291015625
sS'2|A|-90'
p151
F0.3193359375
sS'2|P|+90'
p152
F0.0716552734375
sg97
F0.14227294921875
sS'1|A|-90'
p153
F0.0130615234375
sS'0|A|-90'
p154
F0.0716552734375
sg96
F0.143310546875
ssS"['0.0::-90.0', '90.0::-90.0', '0.0::0.0']"
p155
(dp156
g83
F0.2493896484375
ssS"['0.0::0.0', '0.0::0.0', '90.0::0.0']"
p157
(dp158
g51
F0.015625
ssS"['0.0::0.0', '-90.0::-90.0', '0.0::0.0']"
p159
(dp160
g97
F0.0029296875
ssS"['-90.0::0.0', '0.0::0.0', '0.0::0.0']"
p161
(dp162
g13
F0.30321311950683594
ssS"['0.0::-90.0', '-90.0::90.0', '0.0::90.0']"
p163
(dp164
S'0|P|+90'
p165
F0.10457611083984375
sg34
F0.418304443359375
ssS"['90.0::0.0', '90.0::0.0', '90.0::90.0']"
p166
(dp167
g83
F0.04096221923828125
ssS"['-90.0::-90.0', '-90.0::0.0', '90.0::-90.0']"
p168
(dp169
S'0|A|+90'
p170
F0.6875
ssS"['90.0::-90.0', '90.0::0.0', '90.0::90.0']"
p171
(dp172
g40
F0.2175750732421875
sg97
F0.02880859375
sg153
F0.0360107421875
ssS"['0.0::-90.0', '0.0::90.0', '-90.0::0.0']"
p173
(dp174
S'1|P|-90'
p175
F0.0234375
sg139
F0.41208648681640625
sg113
F0.8241729736328125
ssS"['-90.0::90.0', '0.0::0.0', '0.0::90.0']"
p176
(dp177
g47
F0.0087890625
sg46
F0.002197265625
ssS"['0.0::-90.0', '-90.0::0.0', '90.0::0.0']"
p178
(dp179
g64
F0.109375
sS'2|P|-90'
p180
F0.90625
sg150
F0.4375
sS'2|A|-90'
p181
F0.28125
sg53
F0.32091331481933594
ssS"['-90.0::0.0', '90.0::90.0', '90.0::0.0']"
p182
(dp183
S'0|P|-90'
p184
F0.0716552734375
sg14
F0.0361328125
sg11
F0.03582763671875
ssS"['0.0::0.0', '90.0::0.0', '-90.0::0.0']"
p185
(dp186
S'0|P|-90'
p187
F0.16214179992675781
ssS"['90.0::-90.0', '0.0::90.0', '0.0::-90.0']"
p188
(dp189
g64
F0.36410713195800781
ssS"['-90.0::0.0', '90.0::90.0', '0.0::0.0']"
p190
(dp191
g18
F0.0361328125
sg83
F0.072265625
ssS"['0.0::-90.0', '90.0::90.0', '90.0::0.0']"
p192
(dp193
g187
F0.179443359375
sg52
F0.6217498779296875
ssS"['0.0::90.0', '-90.0::0.0', '0.0::0.0']"
p194
(dp195
g11
F0.2183837890625
ssS"['0.0::0.0', '90.0::-90.0', '0.0::-90.0']"
p196
(dp197
g83
F0.0654296875
ssS"['0.0::-90.0', '90.0::90.0', '-90.0::0.0']"
p198
(dp199
g45
F0.0078125
sg77
F0.72183799743652344
sg13
F0.26241302490234375
sS'2|A|-90'
p200
F0.1123046875
ssS"['0.0::-90.0', '0.0::90.0', '90.0::0.0']"
p201
(dp202
g107
F0.1435546875
sg86
F0.4716796875
sS'2|P|-90'
p203
F0.9808349609375
sg187
F0.485107421875
sS'2|A|-90'
p204
F0.69635009765625
sg83
F0.21875
ssS"['0.0::0.0', '-90.0::90.0', '0.0::90.0']"
p205
(dp206
g187
F0.2091522216796875
ssS"['90.0::90.0', '90.0::-90.0', '90.0::90.0']"
p207
(dp208
g13
F0.00585174560546875
ssS"['0.0::-90.0', '-90.0::90.0', '0.0::0.0']"
p209
(dp210
g138
F0.1875
sg165
F0.00390625
ssS"['0.0::-90.0', '0.0::0.0', '90.0::-90.0']"
p211
(dp212
S'1|A|-90'
p213
F0.25
ssS"['90.0::90.0', '-90.0::90.0', '0.0::0.0']"
p214
(dp215
S'1|A|+90'
p216
F0.006591796875
ssS"['-90.0::-90.0', '90.0::0.0', '-90.0::0.0']"
p217
(dp218
g47
F0.16214179992675781
ssS"['-90.0::0.0', '-90.0::90.0', '0.0::90.0']"
p219
(dp220
g111
F0.0361328125
ssS"['0.0::-90.0', '0.0::90.0', '90.0::-90.0']"
p221
(dp222
g107
F0.125
sg29
F0.4716796875
sg59
F0.4375
sS'2|A|+90'
p223
F0.25
sS'1|A|-90'
p224
F0.984375
ssS"['90.0::-90.0', '0.0::0.0', '-90.0::90.0']"
p225
(dp226
g64
F0.005859375
ssS"['0.0::0.0', '0.0::0.0', '0.0::-90.0']"
p227
(dp228
g76
F0.03515625
ssS"['0.0::-90.0', '-90.0::90.0', '90.0::0.0']"
p229
(dp230
g120
F0.4375
sg111
F0.5
ssS"['90.0::0.0', '-90.0::90.0', '0.0::0.0']"
p231
(dp232
S'0|A|-90'
p233
F0.00390625
ssS"['0.0::90.0', '0.0::90.0', '-90.0::0.0']"
p234
(dp235
g150
F0.0390625
ssS"['0.0::0.0', '90.0::0.0', '0.0::90.0']"
p236
(dp237
g68
F0.07159423828125
sg83
F0.1431884765625
ssS"['-90.0::0.0', '0.0::90.0', '-90.0::90.0']"
p238
(dp239
g93
F0.015625
sg12
F0.0361328125
ssS"['0.0::0.0', '0.0::90.0', '90.0::-90.0']"
p240
(dp241
g18
F0.01806640625
ssS"['0.0::0.0', '90.0::0.0', '-90.0::90.0']"
p242
(dp243
S'2|A|+90'
p244
F0.0477294921875
ssS"['90.0::-90.0', '90.0::90.0', '0.0::90.0']"
p245
(dp246
g64
F0.21797943115234375
ssS"['0.0::90.0', '-90.0::0.0', '0.0::90.0']"
p247
(dp248
g11
F0.0087890625
ssS"['0.0::90.0', '0.0::0.0', '0.0::0.0']"
p249
(dp250
g51
F0.436767578125
sg52
F0.06982421875
ssS"['90.0::-90.0', '0.0::0.0', '90.0::90.0']"
p251
(dp252
g15
F0.04681396484375
sg93
F0.014404296875
sg165
F0.023406982421875
sg97
F0.05401611328125
sg34
F0.10443115234375
ssS"['-90.0::-90.0', '90.0::0.0', '90.0::0.0']"
p253
(dp254
g20
F0.0089569091796875
ssS"['0.0::-90.0', '0.0::0.0', '0.0::0.0']"
p255
(dp256
g120
F0.166259765625
sS'1|P|+90'
p257
F0.94453287124633789
sg150
F0.60642623901367188
sS'2|A|-90'
p258
F0.015625
sg71
F0.245849609375
sg233
F0.47086966037750244
sg165
F0.38154697418212891
ssS"['90.0::0.0', '90.0::0.0', '-90.0::0.0']"
p259
(dp260
g83
F0.005859375
ssS"['-90.0::90.0', '0.0::90.0', '0.0::0.0']"
p261
(dp262
g187
F0.225555419921875
ssS"['90.0::-90.0', '0.0::90.0', '-90.0::-90.0']"
p263
(dp264
g233
F0.22166824340820312
ssS"['0.0::-90.0', '0.0::-90.0', '90.0::0.0']"
p265
(dp266
g86
F0.309814453125
sg200
F0.166259765625
ssS"['-90.0::0.0', '90.0::90.0', '-90.0::0.0']"
p267
(dp268
g153
F0.015625
ssS"['-90.0::0.0', '0.0::90.0', '90.0::90.0']"
p269
(dp270
g93
F0.16375732421875
ssS"['90.0::-90.0', '0.0::90.0', '90.0::-90.0']"
p271
(dp272
S'0|A|-90'
p273
F0.46875
sg181
F0.18205356597900391
ssS"['-90.0::-90.0', '90.0::90.0', '-90.0::90.0']"
p274
(dp275
g37
F0.18735885620117188
ssS"['90.0::90.0', '0.0::90.0', '0.0::0.0']"
p276
(dp277
g107
F0.01318359375
ssS"['-90.0::-90.0', '0.0::90.0', '90.0::0.0']"
p278
(dp279
g74
F0.081298828125
sg258
F0.03125
ssS"['90.0::0.0', '90.0::90.0', '-90.0::0.0']"
p280
(dp281
g77
F0.0615234375
ssS"['0.0::-90.0', '90.0::0.0', '0.0::-90.0']"
p282
(dp283
g45
F0.20626068115234375
sg139
F0.0390625
ssS"['90.0::0.0', '0.0::-90.0', '90.0::90.0']"
p284
(dp285
S'1|P|+90'
p286
F0.023406982421875
ssS"['0.0::0.0', '90.0::90.0', '90.0::90.0']"
p287
(dp288
g61
F0.01953125
sg51
F0.05224609375
ssS"['0.0::0.0', '90.0::90.0', '0.0::0.0']"
p289
(dp290
g131
F0.220458984375
sS'0|P|-90'
p291
F0.579345703125
sg25
F0.1102294921875
ssS"['0.0::-90.0', '0.0::-90.0', '0.0::0.0']"
p292
(dp293
g86
F0.33251953125
sg150
F0.166259765625
sg53
F0.0831298828125
ssS"['0.0::0.0', '-90.0::0.0', '90.0::0.0']"
p294
(dp295
g97
F0.0625
sg150
F0.1875
sS'2|A|-90'
p296
F0.06689453125
ssS"['90.0::0.0', '0.0::0.0', '0.0::0.0']"
p297
(dp298
g78
F0.71050572395324707
sg12
F0.19913208484649658
sg181
F0.005859375
ssS"['-90.0::0.0', '0.0::0.0', '-90.0::-90.0']"
p299
(dp300
g19
F0.0087890625
ssS"['90.0::0.0', '0.0::90.0', '0.0::-90.0']"
p301
(dp302
g138
F0.0087890625
ssS"['-90.0::90.0', '-90.0::-90.0', '0.0::90.0']"
p303
(dp304
g286
F0.002197265625
ssS"['0.0::-90.0', '0.0::0.0', '-90.0::90.0']"
p305
(dp306
g165
F0.01171875
ssS"['0.0::0.0', '0.0::90.0', '0.0::0.0']"
p307
(dp308
g175
F0.59356021881103516
sg154
F0.072265625
sg150
F0.82053375244140625
sg75
F0.015625
sg121
F0.3306884765625
ssS"['0.0::-90.0', '0.0::0.0', '90.0::0.0']"
p309
(dp310
g107
F0.07177734375
sg29
F0.04833984375
sg150
F0.309814453125
sS'2|A|-90'
p311
F0.76107978820800781
ssS"['0.0::0.0', '-90.0::90.0', '0.0::-90.0']"
p312
(dp313
g15
F0.00390625
ssS"['90.0::-90.0', '-90.0::0.0', '0.0::-90.0']"
p314
(dp315
g62
F0.21875
ssS"['0.0::0.0', '0.0::90.0', '-90.0::0.0']"
p316
(dp317
g78
F0.015625
sg41
F0.03125
sg77
F0.16925048828125
sS'0|P|-90'
p318
F0.0859375
sg75
F0.03125
ssS"['-90.0::-90.0', '90.0::90.0', '-90.0::0.0']"
p319
(dp320
g47
F0.42169570922851562
ssS"['90.0::0.0', '90.0::90.0', '0.0::0.0']"
p321
(dp322
g114
F0.3511962890625
sg75
F0.0205078125
ssS"['0.0::0.0', '0.0::90.0', '-90.0::90.0']"
p323
(dp324
g18
F0.0078125
sg15
F0.07176971435546875
sg74
F0.1435394287109375
ssS"['0.0::0.0', '0.0::0.0', '0.0::90.0']"
p325
(dp326
g61
F0.50631570816040039
sg216
F0.07159423828125
ssS"['-90.0::90.0', '-90.0::0.0', '0.0::0.0']"
p327
(dp328
g68
F0.002197265625
ssS"['0.0::0.0', '0.0::-90.0', '0.0::-90.0']"
p329
(dp330
g45
F0.130859375
ssS"['-90.0::-90.0', '90.0::-90.0', '90.0::-90.0']"
p331
(dp332
g10
F0.0135498046875
ssS"['0.0::-90.0', '-90.0::-90.0', '90.0::-90.0']"
p333
(dp334
g41
F0.375
ssS"['90.0::0.0', '0.0::0.0', '90.0::90.0']"
p335
(dp336
g187
F0.070220947265625
ssS"['0.0::0.0', '-90.0::0.0', '-90.0::90.0']"
p337
(dp338
g216
F0.0224609375
ssS"['0.0::-90.0', '0.0::0.0', '-90.0::0.0']"
p339
(dp340
g59
F0.0703125
sS'2|A|+90'
p341
F0.03125
ssS"['90.0::0.0', '0.0::0.0', '0.0::-90.0']"
p342
(dp343
g45
F0.49878108501434326
ssS"['0.0::-90.0', '0.0::-90.0', '90.0::90.0']"
p344
(dp345
g111
F0.1549072265625
ssS"['-90.0::-90.0', '0.0::90.0', '0.0::0.0']"
p346
(dp347
g138
F0.30321311950683594
sg10
F0.42546844482421875
sg51
F0.14453125
sg77
F0.015625
sg40
F0.61013031005859375
sS'0|A|+90'
p348
F0.90950536727905273
sS'0|P|+90'
p349
F0.1083984375
ssS"['0.0::-90.0', '-90.0::0.0', '0.0::0.0']"
p350
(dp351
g62
F0.65625
ssS"['0.0::90.0', '-90.0::90.0', '0.0::0.0']"
p352
(dp353
g19
F0.002197265625
ssS"['0.0::-90.0', '0.0::90.0', '-90.0::90.0']"
p354
(dp355
g216
F0.05615234375
ssS"['-90.0::-90.0', '90.0::0.0', '0.0::0.0']"
p356
(dp357
S'0|A|+90'
p358
F0.32428359985351562
ssS"['0.0::0.0', '-90.0::90.0', '0.0::0.0']"
p359
(dp360
g9
F0.1790771484375
sS'0|P|-90'
p361
F0.001953125
sg121
F0.0078125
ssS"['90.0::-90.0', '0.0::90.0', '90.0::0.0']"
p362
(dp363
g37
F0.234375
ssS"['0.0::90.0', '0.0::90.0', '-90.0::90.0']"
p364
(dp365
g361
F0.10765457153320312
ssS"['0.0::90.0', '0.0::0.0', '0.0::90.0']"
p366
(dp367
g61
F0.017578125
ssS"['-90.0::0.0', '-90.0::90.0', '0.0::0.0']"
p368
(dp369
g34
F0.072265625
ssS"['-90.0::0.0', '0.0::-90.0', '0.0::0.0']"
p370
(dp371
g47
F0.1962890625
ssS"['90.0::-90.0', '90.0::0.0', '0.0::-90.0']"
p372
(dp373
g64
F0.10313034057617188
ssS"['-90.0::-90.0', '90.0::90.0', '0.0::0.0']"
p374
(dp375
g40
F0.432861328125
sg96
F0.5771484375
sg153
F0.14453125
ssS"['0.0::-90.0', '-90.0::-90.0', '0.0::0.0']"
p376
(dp377
g216
F0.166259765625
ssS"['0.0::0.0', '0.0::0.0', '0.0::0.0']"
p378
(dp379
g9
F0.22283935546875
sg131
F0.46985626220703125
sg61
F0.017578125
sg291
F0.87242317199707031
sg14
F0.101318359375
sg29
F0.1431884765625
sg244
F0.38154697418212891
sS'0|P|+90'
p380
F0.2926025390625
ssS"['0.0::90.0', '0.0::0.0', '-90.0::0.0']"
p381
(dp382
g97
F0.20947265625
ssS"['90.0::-90.0', '-90.0::0.0', '90.0::-90.0']"
p383
(dp384
g154
F0.4375
sg47
F0.21875
sg62
F0.21875
ssS"['0.0::90.0', '90.0::90.0', '-90.0::90.0']"
p385
(dp386
g17
F0.035884857177734375
ssS"['90.0::0.0', '-90.0::0.0', '0.0::-90.0']"
p387
(dp388
g11
F0.098615169525146484
ssS"['-90.0::0.0', '90.0::0.0', '90.0::0.0']"
p389
(dp390
g10
F0.0447845458984375
ssS"['90.0::0.0', '90.0::90.0', '0.0::-90.0']"
p391
(dp392
g152
F0.1307373046875
ssS"['0.0::-90.0', '-90.0::90.0', '0.0::-90.0']"
p393
(dp394
g53
F0.36410713195800781
ssS"['0.0::-90.0', '90.0::90.0', '-90.0::90.0']"
p395
(dp396
g111
F0.1123046875
sS'2|A|+90'
p397
F0.015625
sg53
F0.0078125
ssS"['90.0::90.0', '0.0::0.0', '0.0::0.0']"
p398
(dp399
g18
F0.2183837890625
sg187
F0.017578125
ssS"['-90.0::90.0', '-90.0::0.0', '0.0::90.0']"
p400
(dp401
g46
F0.002197265625
sg216
F0.006591796875
ssS"['0.0::-90.0', '-90.0::90.0', '90.0::90.0']"
p402
(dp403
g111
F0.0625
ssS"['90.0::0.0', '90.0::-90.0', '90.0::90.0']"
p404
(dp405
g286
F0.023406982421875
ssS"['0.0::-90.0', '0.0::90.0', '0.0::90.0']"
p406
(dp407
g40
F0.165283203125
sS'2|P|-90'
p408
F0.878936767578125
sg97
F0.5245513916015625
sg121
F0.0234375
ssS"['0.0::-90.0', '0.0::90.0', '0.0::-90.0']"
p409
(dp410
S'2|P|+90'
p411
F0.93354177474975586
ssS"['90.0::-90.0', '0.0::90.0', '90.0::90.0']"
p412
(dp413
g40
F0.35174560546875
ssS"['0.0::-90.0', '90.0::0.0', '90.0::90.0']"
p414
(dp415
g29
F0.08642578125
sg153
F0.46921539306640625
sg150
F0.08642578125
ssS"['0.0::-90.0', '0.0::90.0', '-90.0::-90.0']"
p416
(dp417
g411
F0.42771148681640625
sg244
F0.45057535171508789
ssS"['0.0::-90.0', '90.0::-90.0', '0.0::-90.0']"
p418
(dp419
g10
F0.10313034057617188
ssS"['0.0::0.0', '90.0::0.0', '0.0::-90.0']"
p420
(dp421
g153
F0.017578125
ssS"['0.0::-90.0', '90.0::90.0', '90.0::-90.0']"
p422
(dp423
g25
F0.46875
ssS"['0.0::0.0', '0.0::90.0', '90.0::90.0']"
p424
(dp425
g150
F0.3275146484375
sg34
F0.026123046875
ssS"['-90.0::-90.0', '-90.0::0.0', '90.0::0.0']"
p426
(dp427
g19
F0.421875
sg111
F0.453125
ssS"['0.0::0.0', '-90.0::90.0', '90.0::0.0']"
p428
(dp429
g187
F0.0625
ssS"['-90.0::-90.0', '90.0::90.0', '0.0::90.0']"
p430
(dp431
g154
F0.212890625
sg152
F0.212890625
sg74
F0.42578125
sg14
F0.028076171875
ssS"['0.0::0.0', '0.0::0.0', '-90.0::-90.0']"
p432
(dp433
g16
F0.017578125
sg14
F0.0087890625
ssS"['-90.0::-90.0', '0.0::0.0', '-90.0::0.0']"
p434
(dp435
g16
F0.30321311950683594
ssS"['0.0::0.0', '-90.0::0.0', '90.0::-90.0']"
p436
(dp437
g29
F0.0625
sssS'actions'
p438
(lp439
S'0|A|+90'
p440
aS'0|A|-90'
p441
aS'0|P|+90'
p442
aS'0|P|-90'
p443
aS'1|A|+90'
p444
ag224
aS'1|P|+90'
p445
aS'1|P|-90'
p446
aS'2|A|+90'
p447
aS'2|A|-90'
p448
aS'2|P|+90'
p449
aS'2|P|-90'
p450
asb.